---
triple:          'arm64-apple-darwin'
binary-path:     main
relocations:
  - { offsetInCU: 0x5C, offset: 0x5C, size: 0x8, addend: 0x0, symName: __ZNSt3__1L19piecewise_constructE, symObjAddr: 0xF9C6, symBinAddr: 0x10001F105, symSize: 0x0 }
  - { offsetInCU: 0x501D, offset: 0x501D, size: 0x8, addend: 0x0, symName: __ZNSt3__17advanceB7v160006IP7AddressmmvEEvRT_T0_, symObjAddr: 0x4DAC, symBinAddr: 0x100008704, symSize: 0x50 }
  - { offsetInCU: 0x5088, offset: 0x5088, size: 0x8, addend: 0x0, symName: __ZNSt3__124__put_character_sequenceB7v160006IcNS_11char_traitsIcEEEERNS_13basic_ostreamIT_T0_EES7_PKS4_m, symObjAddr: 0x5AC0, symBinAddr: 0x100009418, symSize: 0x1EC }
  - { offsetInCU: 0xC315, offset: 0xC315, size: 0x8, addend: 0x0, symName: __ZNSt3__111__introsortINS_17_ClassicAlgPolicyERPFbRK6RecordS4_EPS2_EEvT1_S9_T0_NS_15iterator_traitsIS9_E15difference_typeE, symObjAddr: 0xA958, symBinAddr: 0x10000E2B0, symSize: 0x6F8 }
  - { offsetInCU: 0xC470, offset: 0xC470, size: 0x8, addend: 0x0, symName: __ZNSt3__118__insertion_sort_3B7v160006INS_17_ClassicAlgPolicyERPFbRK6RecordS4_EPS2_EEvT1_S9_T0_, symObjAddr: 0xB184, symBinAddr: 0x10000EADC, symSize: 0x15C }
  - { offsetInCU: 0xC543, offset: 0xC543, size: 0x8, addend: 0x0, symName: __ZNSt3__111__sift_downB7v160006INS_17_ClassicAlgPolicyERPFbRK6RecordS4_EPS2_EEvT1_OT0_NS_15iterator_traitsIS9_E15difference_typeES9_, symObjAddr: 0xBC04, symBinAddr: 0x10000F55C, symSize: 0x23C }
  - { offsetInCU: 0xC5F0, offset: 0xC5F0, size: 0x8, addend: 0x0, symName: __ZNSt3__117__floyd_sift_downB7v160006INS_17_ClassicAlgPolicyERPFbRK6RecordS4_EPS2_EET1_S9_OT0_NS_15iterator_traitsIS9_E15difference_typeE, symObjAddr: 0xBFDC, symBinAddr: 0x10000F934, symSize: 0x110 }
  - { offsetInCU: 0xC688, offset: 0xC688, size: 0x8, addend: 0x0, symName: __ZNSt3__127__insertion_sort_incompleteIRPFbRK6RecordS3_EPS1_EEbT0_S8_T_, symObjAddr: 0xB520, symBinAddr: 0x10000EE78, symSize: 0x32C }
  - { offsetInCU: 0xDA9E, offset: 0xDA9E, size: 0x8, addend: 0x0, symName: __ZNSt3__1lsB7v160006IcNS_11char_traitsIcEENS_9allocatorIcEEEERNS_13basic_ostreamIT_T0_EES9_RKNS_12basic_stringIS6_S7_T1_EE, symObjAddr: 0x20D8, symBinAddr: 0x100005A30, symSize: 0x4C }
  - { offsetInCU: 0xDAF6, offset: 0xDAF6, size: 0x8, addend: 0x0, symName: __ZNSt3__1lsB7v160006INS_11char_traitsIcEEEERNS_13basic_ostreamIcT_EES6_PKc, symObjAddr: 0x2124, symBinAddr: 0x100005A7C, symSize: 0x48 }
  - { offsetInCU: 0xDB3C, offset: 0xDB3C, size: 0x8, addend: 0x0, symName: __ZNSt3__14endlB7v160006IcNS_11char_traitsIcEEEERNS_13basic_ostreamIT_T0_EES7_, symObjAddr: 0x2198, symBinAddr: 0x100005AF0, symSize: 0x58 }
  - { offsetInCU: 0xE271, offset: 0xE271, size: 0x8, addend: 0x0, symName: __ZNSt3__17getlineB7v160006IcNS_11char_traitsIcEENS_9allocatorIcEEEERNS_13basic_istreamIT_T0_EES9_RNS_12basic_stringIS6_S7_T1_EE, symObjAddr: 0x248C, symBinAddr: 0x100005DE4, symSize: 0x5C }
  - { offsetInCU: 0xE60C, offset: 0xE60C, size: 0x8, addend: 0x0, symName: __ZNSt3__17getlineB7v160006IcNS_11char_traitsIcEENS_9allocatorIcEEEERNS_13basic_istreamIT_T0_EES9_RNS_12basic_stringIS6_S7_T1_EES6_, symObjAddr: 0x263C, symBinAddr: 0x100005F94, symSize: 0x238 }
  - { offsetInCU: 0xE6D5, offset: 0xE6D5, size: 0x8, addend: 0x0, symName: __ZNSt3__14sortB7v160006INS_11__wrap_iterIP6RecordEEPFbRKS2_S6_EEEvT_S9_T0_, symObjAddr: 0x2A48, symBinAddr: 0x1000063A0, symSize: 0x48 }
  - { offsetInCU: 0xE72F, offset: 0xE72F, size: 0x8, addend: 0x0, symName: __ZNSt3__1neB7v160006IP6RecordEEbRKNS_11__wrap_iterIT_EES7_, symObjAddr: 0x2AF0, symBinAddr: 0x100006448, symSize: 0x34 }
  - { offsetInCU: 0xE772, offset: 0xE772, size: 0x8, addend: 0x0, symName: __ZNSt3__1eqB7v160006ERKNS_14__map_iteratorINS_15__tree_iteratorINS_12__value_typeIfNS_6vectorI7AddressNS_9allocatorIS4_EEEEEEPNS_11__tree_nodeIS8_PvEElEEEESG_, symObjAddr: 0x2BBC, symBinAddr: 0x100006514, symSize: 0x30 }
  - { offsetInCU: 0xE7AF, offset: 0xE7AF, size: 0x8, addend: 0x0, symName: __ZNSt3__1neB7v160006ERKNS_14__map_iteratorINS_15__tree_iteratorINS_12__value_typeIfNS_6vectorI7AddressNS_9allocatorIS4_EEEEEEPNS_11__tree_nodeIS8_PvEElEEEESG_, symObjAddr: 0x2E84, symBinAddr: 0x1000067DC, symSize: 0x30 }
  - { offsetInCU: 0xE7EC, offset: 0xE7EC, size: 0x8, addend: 0x0, symName: __ZNSt3__1neB7v160006IPK7AddressEEbRKNS_11__wrap_iterIT_EES8_, symObjAddr: 0x2F3C, symBinAddr: 0x100006894, symSize: 0x34 }
  - { offsetInCU: 0xF5FF, offset: 0xF5FF, size: 0x8, addend: 0x0, symName: __ZNSt3__1eqB7v160006IP6RecordEEbRKNS_11__wrap_iterIT_EES7_, symObjAddr: 0x3304, symBinAddr: 0x100006C5C, symSize: 0x48 }
  - { offsetInCU: 0xF642, offset: 0xF642, size: 0x8, addend: 0x0, symName: __ZNSt3__1eqB7v160006IPK7AddressEEbRKNS_11__wrap_iterIT_EES8_, symObjAddr: 0x3390, symBinAddr: 0x100006CE8, symSize: 0x48 }
  - { offsetInCU: 0xF685, offset: 0xF685, size: 0x8, addend: 0x0, symName: __ZNSt3__119__debug_db_insert_cB7v160006INS_12basic_stringIcNS_11char_traitsIcEENS_9allocatorIcEEEEEEvPT_, symObjAddr: 0x35E8, symBinAddr: 0x100006F40, symSize: 0x10 }
  - { offsetInCU: 0xF6B6, offset: 0xF6B6, size: 0x8, addend: 0x0, symName: __ZNSt3__122__make_exception_guardB7v160006INS_6vectorI7AddressNS_9allocatorIS2_EEE16__destroy_vectorEEENS_28__exception_guard_exceptionsIT_EES8_, symObjAddr: 0x38B4, symBinAddr: 0x10000720C, symSize: 0x40 }
  - { offsetInCU: 0xF6EB, offset: 0xF6EB, size: 0x8, addend: 0x0, symName: __ZNSt3__119__debug_db_insert_cB7v160006INS_6vectorI7AddressNS_9allocatorIS2_EEEEEEvPT_, symObjAddr: 0x3928, symBinAddr: 0x100007280, symSize: 0x10 }
  - { offsetInCU: 0xF71C, offset: 0xF71C, size: 0x8, addend: 0x0, symName: __ZNSt3__119__allocate_at_leastB7v160006INS_9allocatorI7AddressEEEENS_19__allocation_resultINS_16allocator_traitsIT_E7pointerEEERS6_m, symObjAddr: 0x3C84, symBinAddr: 0x1000075DC, symSize: 0x40 }
  - { offsetInCU: 0xF75F, offset: 0xF75F, size: 0x8, addend: 0x0, symName: __ZNSt3__13minB7v160006ImEERKT_S3_S3_, symObjAddr: 0x3DC0, symBinAddr: 0x100007718, symSize: 0x2C }
  - { offsetInCU: 0xF9A3, offset: 0xF9A3, size: 0x8, addend: 0x0, symName: __ZNSt3__13minB7v160006ImNS_6__lessImmEEEERKT_S5_S5_T0_, symObjAddr: 0x3E24, symBinAddr: 0x10000777C, symSize: 0x54 }
  - { offsetInCU: 0xFA38, offset: 0xFA38, size: 0x8, addend: 0x0, symName: __ZNSt3__120__throw_length_errorB7v160006EPKc, symObjAddr: 0x3EC8, symBinAddr: 0x100007820, symSize: 0x64 }
  - { offsetInCU: 0xFA60, offset: 0xFA60, size: 0x8, addend: 0x0, symName: __ZNSt3__117__libcpp_allocateB7v160006Emm, symObjAddr: 0x4038, symBinAddr: 0x100007990, symSize: 0x28 }
  - { offsetInCU: 0xFA9D, offset: 0xFA9D, size: 0x8, addend: 0x0, symName: __ZNSt3__121__libcpp_operator_newB7v160006IJmEEEPvDpT_, symObjAddr: 0x4060, symBinAddr: 0x1000079B8, symSize: 0x24 }
  - { offsetInCU: 0xFAD6, offset: 0xFAD6, size: 0x8, addend: 0x0, symName: __ZNSt3__112__to_addressB7v160006I7AddressEEPT_S3_, symObjAddr: 0x417C, symBinAddr: 0x100007AD4, symSize: 0x14 }
  - { offsetInCU: 0xFB0B, offset: 0xFB0B, size: 0x8, addend: 0x0, symName: __ZNSt3__130__uninitialized_allocator_copyB7v160006INS_9allocatorI7AddressEEPS2_S4_S4_EET2_RT_T0_T1_S5_, symObjAddr: 0x422C, symBinAddr: 0x100007B84, symSize: 0xF4 }
  - { offsetInCU: 0xFBA9, offset: 0xFBA9, size: 0x8, addend: 0x0, symName: __ZNSt3__122__make_exception_guardB7v160006INS_29_AllocatorDestroyRangeReverseINS_9allocatorI7AddressEEPS3_EEEENS_28__exception_guard_exceptionsIT_EES8_, symObjAddr: 0x4390, symBinAddr: 0x100007CE8, symSize: 0x4C }
  - { offsetInCU: 0xFBDF, offset: 0xFBDF, size: 0x8, addend: 0x0, symName: __ZNSt3__119__allocator_destroyB7v160006INS_9allocatorI7AddressEENS_16reverse_iteratorIPS2_EES6_EEvRT_T0_T1_, symObjAddr: 0x4618, symBinAddr: 0x100007F70, symSize: 0x70 }
  - { offsetInCU: 0xFC42, offset: 0xFC42, size: 0x8, addend: 0x0, symName: __ZNSt3__1neB7v160006IP7AddressS2_EEbRKNS_16reverse_iteratorIT_EERKNS3_IT0_EE, symObjAddr: 0x46BC, symBinAddr: 0x100008014, symSize: 0x48 }
  - { offsetInCU: 0xFC8E, offset: 0xFC8E, size: 0x8, addend: 0x0, symName: __ZNSt3__112__to_addressB7v160006INS_16reverse_iteratorIP7AddressEEvEENS_5decayIDTclsr19__to_address_helperIT_EE6__callclsr3stdE7declvalIRKS6_EEEEE4typeES8_, symObjAddr: 0x4730, symBinAddr: 0x100008088, symSize: 0x24 }
  - { offsetInCU: 0xFCED, offset: 0xFCED, size: 0x8, addend: 0x0, symName: __ZNSt3__118__debug_db_erase_cB7v160006INS_6vectorI7AddressNS_9allocatorIS2_EEEEEEvPT_, symObjAddr: 0x4A10, symBinAddr: 0x100008368, symSize: 0x10 }
  - { offsetInCU: 0xFD1E, offset: 0xFD1E, size: 0x8, addend: 0x0, symName: __ZNSt3__119__libcpp_deallocateB7v160006EPvmm, symObjAddr: 0x4B48, symBinAddr: 0x1000084A0, symSize: 0x30 }
  - { offsetInCU: 0xFD66, offset: 0xFD66, size: 0x8, addend: 0x0, symName: __ZNSt3__127__do_deallocate_handle_sizeB7v160006IJEEEvPvmDpT_, symObjAddr: 0x4B78, symBinAddr: 0x1000084D0, symSize: 0x28 }
  - { offsetInCU: 0xFDA4, offset: 0xFDA4, size: 0x8, addend: 0x0, symName: __ZNSt3__124__libcpp_operator_deleteB7v160006IJPvEEEvDpT_, symObjAddr: 0x4BA0, symBinAddr: 0x1000084F8, symSize: 0x24 }
  - { offsetInCU: 0xFDD9, offset: 0xFDD9, size: 0x8, addend: 0x0, symName: __ZNSt3__18distanceB7v160006IP7AddressEENS_15iterator_traitsIT_E15difference_typeES4_S4_, symObjAddr: 0x4D80, symBinAddr: 0x1000086D8, symSize: 0x2C }
  - { offsetInCU: 0xFE1C, offset: 0xFE1C, size: 0x8, addend: 0x0, symName: __ZNSt3__14copyB7v160006IP7AddressS2_EET0_T_S4_S3_, symObjAddr: 0x4DFC, symBinAddr: 0x100008754, symSize: 0x40 }
  - { offsetInCU: 0xFE76, offset: 0xFE76, size: 0x8, addend: 0x0, symName: __ZNSt3__125__debug_db_invalidate_allB7v160006INS_6vectorI7AddressNS_9allocatorIS2_EEEEEEvPT_, symObjAddr: 0x4FDC, symBinAddr: 0x100008934, symSize: 0x10 }
  - { offsetInCU: 0xFEA7, offset: 0xFEA7, size: 0x8, addend: 0x0, symName: __ZNSt3__110__distanceB7v160006IP7AddressEENS_15iterator_traitsIT_E15difference_typeES4_S4_NS_26random_access_iterator_tagE, symObjAddr: 0x4FEC, symBinAddr: 0x100008944, symSize: 0x28 }
  - { offsetInCU: 0xFEF4, offset: 0xFEF4, size: 0x8, addend: 0x0, symName: __ZNSt3__121__convert_to_integralB7v160006Em, symObjAddr: 0x5014, symBinAddr: 0x10000896C, symSize: 0x14 }
  - { offsetInCU: 0xFF20, offset: 0xFF20, size: 0x8, addend: 0x0, symName: __ZNSt3__19__advanceB7v160006IP7AddressEEvRT_NS_15iterator_traitsIS3_E15difference_typeENS_26random_access_iterator_tagE, symObjAddr: 0x5028, symBinAddr: 0x100008980, symSize: 0x28 }
  - { offsetInCU: 0xFF69, offset: 0xFF69, size: 0x8, addend: 0x0, symName: __ZNSt3__16__copyB7v160006INS_17_ClassicAlgPolicyEP7AddressS3_S3_EENS_4pairIT0_T2_EES5_T1_S6_, symObjAddr: 0x5050, symBinAddr: 0x1000089A8, symSize: 0x44 }
  - { offsetInCU: 0xFFD5, offset: 0xFFD5, size: 0x8, addend: 0x0, symName: __ZNSt3__123__dispatch_copy_or_moveB7v160006INS_17_ClassicAlgPolicyENS_11__copy_loopIS1_EENS_14__copy_trivialEP7AddressS6_S6_EENS_4pairIT2_T4_EES8_T3_S9_, symObjAddr: 0x5094, symBinAddr: 0x1000089EC, symSize: 0x44 }
  - { offsetInCU: 0x10053, offset: 0x10053, size: 0x8, addend: 0x0, symName: __ZNSt3__121__unwrap_and_dispatchB7v160006INS_10__overloadINS_11__copy_loopINS_17_ClassicAlgPolicyEEENS_14__copy_trivialEEEP7AddressS8_S8_Li0EEENS_4pairIT0_T2_EESA_T1_SB_, symObjAddr: 0x50D8, symBinAddr: 0x100008A30, symSize: 0xB4 }
  - { offsetInCU: 0x100E1, offset: 0x100E1, size: 0x8, addend: 0x0, symName: __ZNSt3__114__unwrap_rangeB7v160006IP7AddressS2_EENS_4pairIT0_S4_EET_S6_, symObjAddr: 0x518C, symBinAddr: 0x100008AE4, symSize: 0x60 }
  - { offsetInCU: 0x10276, offset: 0x10276, size: 0x8, addend: 0x0, symName: __ZNSt3__113__unwrap_iterB7v160006IP7AddressNS_18__unwrap_iter_implIS2_Lb1EEELi0EEEDTclsrT0_8__unwrapclsr3stdE7declvalIT_EEEES6_, symObjAddr: 0x5234, symBinAddr: 0x100008B8C, symSize: 0x24 }
  - { offsetInCU: 0x102BA, offset: 0x102BA, size: 0x8, addend: 0x0, symName: __ZNSt3__19make_pairB7v160006IP7AddressS2_EENS_4pairINS_18__unwrap_ref_decayIT_E4typeENS4_IT0_E4typeEEEOS5_OS8_, symObjAddr: 0x5258, symBinAddr: 0x100008BB0, symSize: 0x38 }
  - { offsetInCU: 0x10309, offset: 0x10309, size: 0x8, addend: 0x0, symName: __ZNSt3__114__rewrap_rangeB7v160006IP7AddressS2_EET_S3_T0_, symObjAddr: 0x5290, symBinAddr: 0x100008BE8, symSize: 0x2C }
  - { offsetInCU: 0x10355, offset: 0x10355, size: 0x8, addend: 0x0, symName: __ZNSt3__113__rewrap_iterB7v160006IP7AddressS2_NS_18__unwrap_iter_implIS2_Lb1EEEEET_S5_T0_, symObjAddr: 0x52BC, symBinAddr: 0x100008C14, symSize: 0x3C }
  - { offsetInCU: 0x103AA, offset: 0x103AA, size: 0x8, addend: 0x0, symName: __ZNSt3__119__copy_trivial_implB7v160006I7AddressS1_EENS_4pairIPT_PT0_EES4_S4_S6_, symObjAddr: 0x52F8, symBinAddr: 0x100008C50, symSize: 0x84 }
  - { offsetInCU: 0x10412, offset: 0x10412, size: 0x8, addend: 0x0, symName: __ZNSt3__19make_pairB7v160006IRP7AddressS2_EENS_4pairINS_18__unwrap_ref_decayIT_E4typeENS5_IT0_E4typeEEEOS6_OS9_, symObjAddr: 0x537C, symBinAddr: 0x100008CD4, symSize: 0x38 }
  - { offsetInCU: 0x104B4, offset: 0x104B4, size: 0x8, addend: 0x0, symName: __ZNSt3__13maxB7v160006ImEERKT_S3_S3_, symObjAddr: 0x5624, symBinAddr: 0x100008F7C, symSize: 0x2C }
  - { offsetInCU: 0x104F7, offset: 0x104F7, size: 0x8, addend: 0x0, symName: __ZNSt3__13maxB7v160006ImNS_6__lessImmEEEERKT_S5_S5_T0_, symObjAddr: 0x5650, symBinAddr: 0x100008FA8, symSize: 0x54 }
  - { offsetInCU: 0x10551, offset: 0x10551, size: 0x8, addend: 0x0, symName: __ZNSt3__118__constexpr_strlenB7v160006EPKc, symObjAddr: 0x5738, symBinAddr: 0x100009090, symSize: 0x24 }
  - { offsetInCU: 0x1057D, offset: 0x1057D, size: 0x8, addend: 0x0, symName: __ZNSt3__112__to_addressB7v160006IKcEEPT_S3_, symObjAddr: 0x592C, symBinAddr: 0x100009284, symSize: 0x14 }
  - { offsetInCU: 0x105E5, offset: 0x105E5, size: 0x8, addend: 0x0, symName: __ZNSt3__116__pad_and_outputB7v160006IcNS_11char_traitsIcEEEENS_19ostreambuf_iteratorIT_T0_EES6_PKS4_S8_S8_RNS_8ios_baseES4_, symObjAddr: 0x5CC8, symBinAddr: 0x100009620, symSize: 0x240 }
  - { offsetInCU: 0x106B4, offset: 0x106B4, size: 0x8, addend: 0x0, symName: __ZNSt3__19use_facetB7v160006INS_5ctypeIcEEEERKT_RKNS_6localeE, symObjAddr: 0x61EC, symBinAddr: 0x100009B44, symSize: 0x2C }
  - { offsetInCU: 0x10B83, offset: 0x10B83, size: 0x8, addend: 0x0, symName: __ZNSt3__119__debug_db_insert_cB7v160006INS_6vectorI6RecordNS_9allocatorIS2_EEEEEEvPT_, symObjAddr: 0x63E0, symBinAddr: 0x100009D38, symSize: 0x10 }
  - { offsetInCU: 0x10BB4, offset: 0x10BB4, size: 0x8, addend: 0x0, symName: __ZNSt3__118__debug_db_erase_cB7v160006INS_6vectorI6RecordNS_9allocatorIS2_EEEEEEvPT_, symObjAddr: 0x66C0, symBinAddr: 0x10000A018, symSize: 0x10 }
  - { offsetInCU: 0x10BE5, offset: 0x10BE5, size: 0x8, addend: 0x0, symName: __ZNSt3__112__to_addressB7v160006I6RecordEEPT_S3_, symObjAddr: 0x6804, symBinAddr: 0x10000A15C, symSize: 0x14 }
  - { offsetInCU: 0x10C4D, offset: 0x10C4D, size: 0x8, addend: 0x0, symName: __ZNSt3__119__debug_db_insert_cB7v160006INS_6vectorINS_12basic_stringIcNS_11char_traitsIcEENS_9allocatorIcEEEENS5_IS7_EEEEEEvPT_, symObjAddr: 0x749C, symBinAddr: 0x10000ADF4, symSize: 0x10 }
  - { offsetInCU: 0x10C7E, offset: 0x10C7E, size: 0x8, addend: 0x0, symName: __ZNSt3__118__debug_db_erase_cB7v160006INS_6vectorINS_12basic_stringIcNS_11char_traitsIcEENS_9allocatorIcEEEENS5_IS7_EEEEEEvPT_, symObjAddr: 0x777C, symBinAddr: 0x10000B0D4, symSize: 0x10 }
  - { offsetInCU: 0x10CAF, offset: 0x10CAF, size: 0x8, addend: 0x0, symName: __ZNSt3__112__to_addressB7v160006INS_12basic_stringIcNS_11char_traitsIcEENS_9allocatorIcEEEEEEPT_S8_, symObjAddr: 0x78C0, symBinAddr: 0x10000B218, symSize: 0x14 }
  - { offsetInCU: 0x10CE4, offset: 0x10CE4, size: 0x8, addend: 0x0, symName: __ZNSt3__125__debug_db_invalidate_allB7v160006INS_12basic_stringIcNS_11char_traitsIcEENS_9allocatorIcEEEEEEvPT_, symObjAddr: 0x7D20, symBinAddr: 0x10000B678, symSize: 0x10 }
  - { offsetInCU: 0x10F4A, offset: 0x10F4A, size: 0x8, addend: 0x0, symName: __ZNSt3__119__allocate_at_leastB7v160006INS_9allocatorINS_12basic_stringIcNS_11char_traitsIcEENS1_IcEEEEEEEENS_19__allocation_resultINS_16allocator_traitsIT_E7pointerEEERSA_m, symObjAddr: 0x8658, symBinAddr: 0x10000BFB0, symSize: 0x40 }
  - { offsetInCU: 0x10F8D, offset: 0x10F8D, size: 0x8, addend: 0x0, symName: __ZNSt3__142__uninitialized_allocator_move_if_noexceptB7v160006INS_9allocatorINS_12basic_stringIcNS_11char_traitsIcEENS1_IcEEEEEENS_16reverse_iteratorIPS6_EESA_SA_EET2_RT_T0_T1_SB_, symObjAddr: 0x8810, symBinAddr: 0x10000C168, symSize: 0x12C }
  - { offsetInCU: 0x1102D, offset: 0x1102D, size: 0x8, addend: 0x0, symName: __ZNSt3__14swapB7v160006IPNS_12basic_stringIcNS_11char_traitsIcEENS_9allocatorIcEEEEEENS_9enable_ifIXaasr21is_move_constructibleIT_EE5valuesr18is_move_assignableIS9_EE5valueEvE4typeERS9_SC_, symObjAddr: 0x8988, symBinAddr: 0x10000C2E0, symSize: 0x3C }
  - { offsetInCU: 0x1107E, offset: 0x1107E, size: 0x8, addend: 0x0, symName: __ZNSt3__125__debug_db_invalidate_allB7v160006INS_6vectorINS_12basic_stringIcNS_11char_traitsIcEENS_9allocatorIcEEEENS5_IS7_EEEEEEvPT_, symObjAddr: 0x8A8C, symBinAddr: 0x10000C3E4, symSize: 0x10 }
  - { offsetInCU: 0x110AF, offset: 0x110AF, size: 0x8, addend: 0x0, symName: __ZNSt3__122__make_exception_guardB7v160006INS_29_AllocatorDestroyRangeReverseINS_9allocatorINS_12basic_stringIcNS_11char_traitsIcEENS2_IcEEEEEENS_16reverse_iteratorIPS7_EEEEEENS_28__exception_guard_exceptionsIT_EESE_, symObjAddr: 0x8A9C, symBinAddr: 0x10000C3F4, symSize: 0x4C }
  - { offsetInCU: 0x110E5, offset: 0x110E5, size: 0x8, addend: 0x0, symName: __ZNSt3__1neB7v160006IPNS_12basic_stringIcNS_11char_traitsIcEENS_9allocatorIcEEEES7_EEbRKNS_16reverse_iteratorIT_EERKNS8_IT0_EE, symObjAddr: 0x8B2C, symBinAddr: 0x10000C484, symSize: 0x48 }
  - { offsetInCU: 0x11131, offset: 0x11131, size: 0x8, addend: 0x0, symName: __ZNSt3__112__to_addressB7v160006INS_16reverse_iteratorIPNS_12basic_stringIcNS_11char_traitsIcEENS_9allocatorIcEEEEEEvEENS_5decayIDTclsr19__to_address_helperIT_EE6__callclsr3stdE7declvalIRKSB_EEEEE4typeESD_, symObjAddr: 0x8BA8, symBinAddr: 0x10000C500, symSize: 0x24 }
  - { offsetInCU: 0x11167, offset: 0x11167, size: 0x8, addend: 0x0, symName: __ZNSt3__115__debug_db_swapB7v160006INS_12basic_stringIcNS_11char_traitsIcEENS_9allocatorIcEEEEEEvPT_S8_, symObjAddr: 0x8DDC, symBinAddr: 0x10000C734, symSize: 0x14 }
  - { offsetInCU: 0x111CF, offset: 0x111CF, size: 0x8, addend: 0x0, symName: __ZNSt3__119__allocator_destroyB7v160006INS_9allocatorINS_12basic_stringIcNS_11char_traitsIcEENS1_IcEEEEEENS_16reverse_iteratorINS8_IPS6_EEEESB_EEvRT_T0_T1_, symObjAddr: 0x8F50, symBinAddr: 0x10000C8A8, symSize: 0x70 }
  - { offsetInCU: 0x11234, offset: 0x11234, size: 0x8, addend: 0x0, symName: __ZNSt3__1neB7v160006INS_16reverse_iteratorIPNS_12basic_stringIcNS_11char_traitsIcEENS_9allocatorIcEEEEEES9_EEbRKNS1_IT_EERKNS1_IT0_EE, symObjAddr: 0x8FFC, symBinAddr: 0x10000C954, symSize: 0x60 }
  - { offsetInCU: 0x11280, offset: 0x11280, size: 0x8, addend: 0x0, symName: __ZNSt3__112__to_addressB7v160006INS_16reverse_iteratorINS1_IPNS_12basic_stringIcNS_11char_traitsIcEENS_9allocatorIcEEEEEEEEvEENS_5decayIDTclsr19__to_address_helperIT_EE6__callclsr3stdE7declvalIRKSC_EEEEE4typeESE_, symObjAddr: 0x905C, symBinAddr: 0x10000C9B4, symSize: 0x24 }
  - { offsetInCU: 0x112DF, offset: 0x112DF, size: 0x8, addend: 0x0, symName: __ZNSt3__119__allocate_at_leastB7v160006INS_9allocatorI6RecordEEEENS_19__allocation_resultINS_16allocator_traitsIT_E7pointerEEERS6_m, symObjAddr: 0x9B38, symBinAddr: 0x10000D490, symSize: 0x40 }
  - { offsetInCU: 0x11322, offset: 0x11322, size: 0x8, addend: 0x0, symName: __ZNSt3__142__uninitialized_allocator_move_if_noexceptB7v160006INS_9allocatorI6RecordEENS_16reverse_iteratorIPS2_EES6_S2_vEET1_RT_T0_SA_S7_, symObjAddr: 0x9CF0, symBinAddr: 0x10000D648, symSize: 0x78 }
  - { offsetInCU: 0x1139F, offset: 0x1139F, size: 0x8, addend: 0x0, symName: __ZNSt3__14swapB7v160006IP6RecordEENS_9enable_ifIXaasr21is_move_constructibleIT_EE5valuesr18is_move_assignableIS4_EE5valueEvE4typeERS4_S7_, symObjAddr: 0x9DB4, symBinAddr: 0x10000D70C, symSize: 0x3C }
  - { offsetInCU: 0x113F0, offset: 0x113F0, size: 0x8, addend: 0x0, symName: __ZNSt3__125__debug_db_invalidate_allB7v160006INS_6vectorI6RecordNS_9allocatorIS2_EEEEEEvPT_, symObjAddr: 0x9EB8, symBinAddr: 0x10000D810, symSize: 0x10 }
  - { offsetInCU: 0x11421, offset: 0x11421, size: 0x8, addend: 0x0, symName: __ZNSt3__14moveB7v160006INS_16reverse_iteratorIP6RecordEES4_EET0_T_S6_S5_, symObjAddr: 0x9EC8, symBinAddr: 0x10000D820, symSize: 0x78 }
  - { offsetInCU: 0x1147B, offset: 0x1147B, size: 0x8, addend: 0x0, symName: __ZNSt3__16__moveB7v160006INS_17_ClassicAlgPolicyENS_16reverse_iteratorIP6RecordEES5_S5_EENS_4pairIT0_T2_EES7_T1_S8_, symObjAddr: 0x9F40, symBinAddr: 0x10000D898, symSize: 0x64 }
  - { offsetInCU: 0x114E7, offset: 0x114E7, size: 0x8, addend: 0x0, symName: __ZNSt3__123__dispatch_copy_or_moveB7v160006INS_17_ClassicAlgPolicyENS_11__move_loopIS1_EENS_14__move_trivialENS_16reverse_iteratorIP6RecordEES8_S8_EENS_4pairIT2_T4_EESA_T3_SB_, symObjAddr: 0x9FA4, symBinAddr: 0x10000D8FC, symSize: 0x64 }
  - { offsetInCU: 0x11565, offset: 0x11565, size: 0x8, addend: 0x0, symName: __ZNSt3__121__unwrap_and_dispatchB7v160006INS_10__overloadINS_11__move_loopINS_17_ClassicAlgPolicyEEENS_14__move_trivialEEENS_16reverse_iteratorIP6RecordEESA_SA_Li0EEENS_4pairIT0_T2_EESC_T1_SD_, symObjAddr: 0xA008, symBinAddr: 0x10000D960, symSize: 0x12C }
  - { offsetInCU: 0x115F5, offset: 0x115F5, size: 0x8, addend: 0x0, symName: __ZNSt3__114__unwrap_rangeB7v160006INS_16reverse_iteratorIP6RecordEES4_EENS_4pairIT0_S6_EET_S8_, symObjAddr: 0xA134, symBinAddr: 0x10000DA8C, symSize: 0x84 }
  - { offsetInCU: 0x117AF, offset: 0x117AF, size: 0x8, addend: 0x0, symName: __ZNSt3__113__unwrap_iterB7v160006INS_16reverse_iteratorIP6RecordEENS_18__unwrap_iter_implIS4_Lb0EEELi0EEEDTclsrT0_8__unwrapclsr3stdE7declvalIT_EEEES8_, symObjAddr: 0xA254, symBinAddr: 0x10000DBAC, symSize: 0x44 }
  - { offsetInCU: 0x117F3, offset: 0x117F3, size: 0x8, addend: 0x0, symName: __ZNSt3__19make_pairB7v160006INS_16reverse_iteratorIP6RecordEES4_EENS_4pairINS_18__unwrap_ref_decayIT_E4typeENS6_IT0_E4typeEEEOS7_OSA_, symObjAddr: 0xA298, symBinAddr: 0x10000DBF0, symSize: 0x38 }
  - { offsetInCU: 0x11842, offset: 0x11842, size: 0x8, addend: 0x0, symName: __ZNSt3__114__rewrap_rangeB7v160006INS_16reverse_iteratorIP6RecordEES4_EET_S5_T0_, symObjAddr: 0xA2D0, symBinAddr: 0x10000DC28, symSize: 0x5C }
  - { offsetInCU: 0x1188E, offset: 0x1188E, size: 0x8, addend: 0x0, symName: __ZNSt3__113__rewrap_iterB7v160006INS_16reverse_iteratorIP6RecordEES4_NS_18__unwrap_iter_implIS4_Lb0EEEEET_S7_T0_, symObjAddr: 0xA32C, symBinAddr: 0x10000DC84, symSize: 0x74 }
  - { offsetInCU: 0x118E3, offset: 0x118E3, size: 0x8, addend: 0x0, symName: __ZNSt3__1neB7v160006IP6RecordS2_EEbRKNS_16reverse_iteratorIT_EERKNS3_IT0_EE, symObjAddr: 0xA3A0, symBinAddr: 0x10000DCF8, symSize: 0x48 }
  - { offsetInCU: 0x11A92, offset: 0x11A92, size: 0x8, addend: 0x0, symName: __ZNSt3__111__sort_implB7v160006INS_17_ClassicAlgPolicyENS_11__wrap_iterIP6RecordEEPFbRKS3_S7_EEEvT0_SA_RT1_, symObjAddr: 0xA7C4, symBinAddr: 0x10000E11C, symSize: 0x84 }
  - { offsetInCU: 0x11B39, offset: 0x11B39, size: 0x8, addend: 0x0, symName: __ZNSt3__123__debug_randomize_rangeB7v160006INS_17_ClassicAlgPolicyENS_11__wrap_iterIP6RecordEES5_EEvT0_T1_, symObjAddr: 0xA848, symBinAddr: 0x10000E1A0, symSize: 0x14 }
  - { offsetInCU: 0x11B8A, offset: 0x11B8A, size: 0x8, addend: 0x0, symName: __ZNSt3__16__sortIRPFbRK6RecordS3_EPS1_EEvT0_S8_T_, symObjAddr: 0xA85C, symBinAddr: 0x10000E1B4, symSize: 0x68 }
  - { offsetInCU: 0x11C1A, offset: 0x11C1A, size: 0x8, addend: 0x0, symName: __ZNSt3__113__unwrap_iterB7v160006INS_11__wrap_iterIP6RecordEENS_18__unwrap_iter_implIS4_Lb1EEELi0EEEDTclsrT0_8__unwrapclsr3stdE7declvalIT_EEEES8_, symObjAddr: 0xA8C4, symBinAddr: 0x10000E21C, symSize: 0x2C }
  - { offsetInCU: 0x11C5E, offset: 0x11C5E, size: 0x8, addend: 0x0, symName: __ZNSt3__17__log2iB7v160006IlEET_S1_, symObjAddr: 0xA8F0, symBinAddr: 0x10000E248, symSize: 0x54 }
  - { offsetInCU: 0x11CC8, offset: 0x11CC8, size: 0x8, addend: 0x0, symName: __ZNSt3__112__libcpp_clzB7v160006Em, symObjAddr: 0xB068, symBinAddr: 0x10000E9C0, symSize: 0x1C }
  - { offsetInCU: 0x11CF4, offset: 0x11CF4, size: 0x8, addend: 0x0, symName: __ZNSt3__124__sort3_maybe_branchlessB7v160006INS_17_ClassicAlgPolicyERPFbRK6RecordS4_EPS2_EENS_9enable_ifIXntsr21__use_branchless_sortIT0_T1_EE5valueEvE4typeESB_SB_SB_SA_, symObjAddr: 0xB0B8, symBinAddr: 0x10000EA10, symSize: 0x3C }
  - { offsetInCU: 0x11D65, offset: 0x11D65, size: 0x8, addend: 0x0, symName: __ZNSt3__124__sort4_maybe_branchlessB7v160006INS_17_ClassicAlgPolicyERPFbRK6RecordS4_EPS2_EENS_9enable_ifIXntsr21__use_branchless_sortIT0_T1_EE5valueEvE4typeESB_SB_SB_SB_SA_, symObjAddr: 0xB0F4, symBinAddr: 0x10000EA4C, symSize: 0x44 }
  - { offsetInCU: 0x11DEA, offset: 0x11DEA, size: 0x8, addend: 0x0, symName: __ZNSt3__124__sort5_maybe_branchlessB7v160006INS_17_ClassicAlgPolicyERPFbRK6RecordS4_EPS2_EENS_9enable_ifIXntsr21__use_branchless_sortIT0_T1_EE5valueEvE4typeESB_SB_SB_SB_SB_SA_, symObjAddr: 0xB138, symBinAddr: 0x10000EA90, symSize: 0x4C }
  - { offsetInCU: 0x11E7E, offset: 0x11E7E, size: 0x8, addend: 0x0, symName: __ZNSt3__114__partial_sortB7v160006INS_17_ClassicAlgPolicyERPFbRK6RecordS4_EPS2_S8_EET1_S9_S9_T2_RT0_, symObjAddr: 0xB2E0, symBinAddr: 0x10000EC38, symSize: 0x94 }
  - { offsetInCU: 0x11F06, offset: 0x11F06, size: 0x8, addend: 0x0, symName: __ZNSt3__119__sort5_wrap_policyB7v160006INS_17_ClassicAlgPolicyERPFbRK6RecordS4_EPS2_EEjT1_S9_S9_S9_S9_T0_, symObjAddr: 0xB374, symBinAddr: 0x10000ECCC, symSize: 0x54 }
  - { offsetInCU: 0x11FAC, offset: 0x11FAC, size: 0x8, addend: 0x0, symName: __ZNSt3__17__sort3B7v160006INS_17_ClassicAlgPolicyERPFbRK6RecordS4_EPS2_EEjT1_S9_S9_T0_, symObjAddr: 0xB3C8, symBinAddr: 0x10000ED20, symSize: 0x158 }
  - { offsetInCU: 0x1202B, offset: 0x1202B, size: 0x8, addend: 0x0, symName: __ZNSt3__19iter_swapB7v160006IP6RecordS2_EEvT_T0_, symObjAddr: 0xB864, symBinAddr: 0x10000F1BC, symSize: 0x2C }
  - { offsetInCU: 0x12073, offset: 0x12073, size: 0x8, addend: 0x0, symName: __ZNSt3__14swapB7v160006I6RecordEENS_9enable_ifIXaasr21is_move_constructibleIT_EE5valuesr18is_move_assignableIS3_EE5valueEvE4typeERS3_S6_, symObjAddr: 0xB890, symBinAddr: 0x10000F1E8, symSize: 0x58 }
  - { offsetInCU: 0x120C4, offset: 0x120C4, size: 0x8, addend: 0x0, symName: __ZNSt3__17__sort4B7v160006INS_17_ClassicAlgPolicyERPFbRK6RecordS4_EPS2_EEjT1_S9_S9_S9_T0_, symObjAddr: 0xB8E8, symBinAddr: 0x10000F240, symSize: 0xF0 }
  - { offsetInCU: 0x12151, offset: 0x12151, size: 0x8, addend: 0x0, symName: __ZNSt3__123__debug_randomize_rangeB7v160006INS_17_ClassicAlgPolicyEP6RecordS3_EEvT0_T1_, symObjAddr: 0xBA1C, symBinAddr: 0x10000F374, symSize: 0x14 }
  - { offsetInCU: 0x121A2, offset: 0x121A2, size: 0x8, addend: 0x0, symName: __ZNSt3__119__partial_sort_implB7v160006INS_17_ClassicAlgPolicyERPFbRK6RecordS4_EPS2_S8_EET1_S9_S9_T2_OT0_, symObjAddr: 0xBA30, symBinAddr: 0x10000F388, symSize: 0x114 }
  - { offsetInCU: 0x12238, offset: 0x12238, size: 0x8, addend: 0x0, symName: __ZNSt3__111__make_heapB7v160006INS_17_ClassicAlgPolicyERPFbRK6RecordS4_EPS2_EEvT1_S9_OT0_, symObjAddr: 0xBB44, symBinAddr: 0x10000F49C, symSize: 0xC0 }
  - { offsetInCU: 0x122DA, offset: 0x122DA, size: 0x8, addend: 0x0, symName: __ZNSt3__111__sort_heapB7v160006INS_17_ClassicAlgPolicyERPFbRK6RecordS4_EPS2_EEvT1_S9_OT0_, symObjAddr: 0xBE40, symBinAddr: 0x10000F798, symSize: 0x90 }
  - { offsetInCU: 0x1236E, offset: 0x1236E, size: 0x8, addend: 0x0, symName: __ZNSt3__110__pop_heapB7v160006INS_17_ClassicAlgPolicyEPFbRK6RecordS4_EPS2_EEvT1_S8_RT0_NS_15iterator_traitsIS8_E15difference_typeE, symObjAddr: 0xBED0, symBinAddr: 0x10000F828, symSize: 0x10C }
  - { offsetInCU: 0x1241E, offset: 0x1241E, size: 0x8, addend: 0x0, symName: __ZNSt3__19__sift_upB7v160006INS_17_ClassicAlgPolicyERPFbRK6RecordS4_EPS2_EEvT1_S9_OT0_NS_15iterator_traitsIS9_E15difference_typeE, symObjAddr: 0xC0EC, symBinAddr: 0x10000FA44, symSize: 0x144 }
  - { offsetInCU: 0x124CE, offset: 0x124CE, size: 0x8, addend: 0x0, symName: __ZNSt3__17__sort5IRPFbRK6RecordS3_EPS1_EEjT0_S8_S8_S8_S8_T_, symObjAddr: 0xC230, symBinAddr: 0x10000FB88, symSize: 0x13C }
  - { offsetInCU: 0x125CC, offset: 0x125CC, size: 0x8, addend: 0x0, symName: __ZNSt3__112__to_addressB7v160006INS_11__wrap_iterIP6RecordEEvEENS_5decayIDTclsr19__to_address_helperIT_EE6__callclsr3stdE7declvalIRKS6_EEEEE4typeES8_, symObjAddr: 0xC394, symBinAddr: 0x10000FCEC, symSize: 0x24 }
  - { offsetInCU: 0x126AB, offset: 0x126AB, size: 0x8, addend: 0x0, symName: __ZNSt3__115__debug_db_swapB7v160006INS_6vectorI6RecordNS_9allocatorIS2_EEEEEEvPT_S7_, symObjAddr: 0xC578, symBinAddr: 0x10000FED0, symSize: 0x14 }
  - { offsetInCU: 0x126EA, offset: 0x126EA, size: 0x8, addend: 0x0, symName: __ZNSt3__1neB7v160006ERKNS_15__tree_iteratorINS_12__value_typeIfNS_6vectorI7AddressNS_9allocatorIS3_EEEEEEPNS_11__tree_nodeIS7_PvEElEESE_, symObjAddr: 0xC8B0, symBinAddr: 0x100010208, symSize: 0x34 }
  - { offsetInCU: 0x12727, offset: 0x12727, size: 0x8, addend: 0x0, symName: __ZNSt3__1eqB7v160006ERKNS_15__tree_iteratorINS_12__value_typeIfNS_6vectorI7AddressNS_9allocatorIS3_EEEEEEPNS_11__tree_nodeIS7_PvEElEESE_, symObjAddr: 0xCA9C, symBinAddr: 0x1000103F4, symSize: 0x30 }
  - { offsetInCU: 0x12764, offset: 0x12764, size: 0x8, addend: 0x0, symName: __ZNSt3__142__uninitialized_allocator_move_if_noexceptB7v160006INS_9allocatorI7AddressEENS_16reverse_iteratorIPS2_EES6_S2_vEET1_RT_T0_SA_S7_, symObjAddr: 0xD234, symBinAddr: 0x100010B8C, symSize: 0x78 }
  - { offsetInCU: 0x127E1, offset: 0x127E1, size: 0x8, addend: 0x0, symName: __ZNSt3__14swapB7v160006IP7AddressEENS_9enable_ifIXaasr21is_move_constructibleIT_EE5valuesr18is_move_assignableIS4_EE5valueEvE4typeERS4_S7_, symObjAddr: 0xD2AC, symBinAddr: 0x100010C04, symSize: 0x3C }
  - { offsetInCU: 0x12832, offset: 0x12832, size: 0x8, addend: 0x0, symName: __ZNSt3__14moveB7v160006INS_16reverse_iteratorIP7AddressEES4_EET0_T_S6_S5_, symObjAddr: 0xD2E8, symBinAddr: 0x100010C40, symSize: 0x78 }
  - { offsetInCU: 0x1288C, offset: 0x1288C, size: 0x8, addend: 0x0, symName: __ZNSt3__16__moveB7v160006INS_17_ClassicAlgPolicyENS_16reverse_iteratorIP7AddressEES5_S5_EENS_4pairIT0_T2_EES7_T1_S8_, symObjAddr: 0xD360, symBinAddr: 0x100010CB8, symSize: 0x64 }
  - { offsetInCU: 0x128F8, offset: 0x128F8, size: 0x8, addend: 0x0, symName: __ZNSt3__123__dispatch_copy_or_moveB7v160006INS_17_ClassicAlgPolicyENS_11__move_loopIS1_EENS_14__move_trivialENS_16reverse_iteratorIP7AddressEES8_S8_EENS_4pairIT2_T4_EESA_T3_SB_, symObjAddr: 0xD3C4, symBinAddr: 0x100010D1C, symSize: 0x64 }
  - { offsetInCU: 0x12976, offset: 0x12976, size: 0x8, addend: 0x0, symName: __ZNSt3__121__unwrap_and_dispatchB7v160006INS_10__overloadINS_11__move_loopINS_17_ClassicAlgPolicyEEENS_14__move_trivialEEENS_16reverse_iteratorIP7AddressEESA_SA_Li0EEENS_4pairIT0_T2_EESC_T1_SD_, symObjAddr: 0xD428, symBinAddr: 0x100010D80, symSize: 0x12C }
  - { offsetInCU: 0x12A06, offset: 0x12A06, size: 0x8, addend: 0x0, symName: __ZNSt3__114__unwrap_rangeB7v160006INS_16reverse_iteratorIP7AddressEES4_EENS_4pairIT0_S6_EET_S8_, symObjAddr: 0xD554, symBinAddr: 0x100010EAC, symSize: 0x84 }
  - { offsetInCU: 0x12B26, offset: 0x12B26, size: 0x8, addend: 0x0, symName: __ZNSt3__113__unwrap_iterB7v160006INS_16reverse_iteratorIP7AddressEENS_18__unwrap_iter_implIS4_Lb0EEELi0EEEDTclsrT0_8__unwrapclsr3stdE7declvalIT_EEEES8_, symObjAddr: 0xD680, symBinAddr: 0x100010FD8, symSize: 0x44 }
  - { offsetInCU: 0x12B6A, offset: 0x12B6A, size: 0x8, addend: 0x0, symName: __ZNSt3__19make_pairB7v160006INS_16reverse_iteratorIP7AddressEES4_EENS_4pairINS_18__unwrap_ref_decayIT_E4typeENS6_IT0_E4typeEEEOS7_OSA_, symObjAddr: 0xD6C4, symBinAddr: 0x10001101C, symSize: 0x38 }
  - { offsetInCU: 0x12BB9, offset: 0x12BB9, size: 0x8, addend: 0x0, symName: __ZNSt3__114__rewrap_rangeB7v160006INS_16reverse_iteratorIP7AddressEES4_EET_S5_T0_, symObjAddr: 0xD6FC, symBinAddr: 0x100011054, symSize: 0x5C }
  - { offsetInCU: 0x12C05, offset: 0x12C05, size: 0x8, addend: 0x0, symName: __ZNSt3__113__rewrap_iterB7v160006INS_16reverse_iteratorIP7AddressEES4_NS_18__unwrap_iter_implIS4_Lb0EEEEET_S7_T0_, symObjAddr: 0xD758, symBinAddr: 0x1000110B0, symSize: 0x74 }
  - { offsetInCU: 0x12CFD, offset: 0x12CFD, size: 0x8, addend: 0x0, symName: __ZNSt3__116forward_as_tupleB7v160006IJRKfEEENS_5tupleIJDpOT_EEES6_, symObjAddr: 0xDBA4, symBinAddr: 0x1000114FC, symSize: 0x2C }
  - { offsetInCU: 0x12D36, offset: 0x12D36, size: 0x8, addend: 0x0, symName: __ZNSt3__116forward_as_tupleB7v160006IJEEENS_5tupleIJDpOT_EEES4_, symObjAddr: 0xDBD0, symBinAddr: 0x100011528, symSize: 0x4 }
  - { offsetInCU: 0x12D83, offset: 0x12D83, size: 0x8, addend: 0x0, symName: __ZNSt3__13getB7v160006ILm0EJRKfEEERNS_13tuple_elementIXT_ENS_5tupleIJDpT0_EEEE4typeERS7_, symObjAddr: 0xE4C8, symBinAddr: 0x100011E20, symSize: 0x24 }
  - { offsetInCU: 0x12DC6, offset: 0x12DC6, size: 0x8, addend: 0x0, symName: __ZNSt3__127__tree_balance_after_insertB7v160006IPNS_16__tree_node_baseIPvEEEEvT_S5_, symObjAddr: 0xE578, symBinAddr: 0x100011ED0, symSize: 0x32C }
  - { offsetInCU: 0x12E42, offset: 0x12E42, size: 0x8, addend: 0x0, symName: __ZNSt3__120__tree_is_left_childB7v160006IPNS_16__tree_node_baseIPvEEEEbT_, symObjAddr: 0xE8E4, symBinAddr: 0x10001223C, symSize: 0x2C }
  - { offsetInCU: 0x12E77, offset: 0x12E77, size: 0x8, addend: 0x0, symName: __ZNSt3__118__tree_left_rotateB7v160006IPNS_16__tree_node_baseIPvEEEEvT_, symObjAddr: 0xE910, symBinAddr: 0x100012268, symSize: 0xD8 }
  - { offsetInCU: 0x12EB9, offset: 0x12EB9, size: 0x8, addend: 0x0, symName: __ZNSt3__119__tree_right_rotateB7v160006IPNS_16__tree_node_baseIPvEEEEvT_, symObjAddr: 0xE9E8, symBinAddr: 0x100012340, symSize: 0xCC }
  - { offsetInCU: 0x12F52, offset: 0x12F52, size: 0x8, addend: 0x0, symName: __ZNSt3__116__tree_next_iterB7v160006IPNS_15__tree_end_nodeIPNS_16__tree_node_baseIPvEEEES5_EET_T0_, symObjAddr: 0xEE48, symBinAddr: 0x1000127A0, symSize: 0x80 }
  - { offsetInCU: 0x12F90, offset: 0x12F90, size: 0x8, addend: 0x0, symName: __ZNSt3__110__tree_minB7v160006IPNS_16__tree_node_baseIPvEEEET_S5_, symObjAddr: 0xEEC8, symBinAddr: 0x100012820, symSize: 0x40 }
  - { offsetInCU: 0x158BD, offset: 0x158BD, size: 0x8, addend: 0x0, symName: __ZSt28__throw_bad_array_new_lengthB7v160006v, symObjAddr: 0x4004, symBinAddr: 0x10000795C, symSize: 0x34 }
  - { offsetInCU: 0x16B8F, offset: 0x16B8F, size: 0x8, addend: 0x0, symName: __ZNSt3__16vectorINS_12basic_stringIcNS_11char_traitsIcEENS_9allocatorIcEEEENS4_IS6_EEE26__swap_out_circular_bufferERNS_14__split_bufferIS6_RS7_EE, symObjAddr: 0x82E0, symBinAddr: 0x10000BC38, symSize: 0x118 }
  - { offsetInCU: 0x16C23, offset: 0x16C23, size: 0x8, addend: 0x0, symName: __ZNSt3__16vectorI6RecordNS_9allocatorIS1_EEE26__swap_out_circular_bufferERNS_14__split_bufferIS1_RS3_EE, symObjAddr: 0x97C0, symBinAddr: 0x10000D118, symSize: 0x118 }
  - { offsetInCU: 0x16C7A, offset: 0x16C7A, size: 0x8, addend: 0x0, symName: __ZNSt3__16vectorI7AddressNS_9allocatorIS1_EEE26__swap_out_circular_bufferERNS_14__split_bufferIS1_RS3_EE, symObjAddr: 0xCEC4, symBinAddr: 0x10001081C, symSize: 0x118 }
  - { offsetInCU: 0x18CDA, offset: 0x18CDA, size: 0x8, addend: 0x0, symName: __Z14compareRecordsRK6RecordS1_, symObjAddr: 0x0, symBinAddr: 0x100003958, symSize: 0xB0 }
  - { offsetInCU: 0x18D15, offset: 0x18D15, size: 0x8, addend: 0x0, symName: _main, symObjAddr: 0xB0, symBinAddr: 0x100003A08, symSize: 0x1E5C }
  - { offsetInCU: 0x190D5, offset: 0x190D5, size: 0x8, addend: 0x0, symName: __ZNSt3__112basic_stringIcNS_11char_traitsIcEENS_9allocatorIcEEEC1B7v160006IDnEEPKc, symObjAddr: 0x1F0C, symBinAddr: 0x100005864, symSize: 0x34 }
  - { offsetInCU: 0x1912D, offset: 0x1912D, size: 0x8, addend: 0x0, symName: __ZNSt3__114basic_ofstreamIcNS_11char_traitsIcEEEC1ERKNS_12basic_stringIcS2_NS_9allocatorIcEEEEj, symObjAddr: 0x1F40, symBinAddr: 0x100005898, symSize: 0x16C }
  - { offsetInCU: 0x19177, offset: 0x19177, size: 0x8, addend: 0x0, symName: __ZNKSt3__114basic_ofstreamIcNS_11char_traitsIcEEE7is_openEv, symObjAddr: 0x20AC, symBinAddr: 0x100005A04, symSize: 0x2C }
  - { offsetInCU: 0x1919F, offset: 0x1919F, size: 0x8, addend: 0x0, symName: __ZNSt3__113basic_ostreamIcNS_11char_traitsIcEEElsB7v160006EPFRS3_S4_E, symObjAddr: 0x216C, symBinAddr: 0x100005AC4, symSize: 0x2C }
  - { offsetInCU: 0x191D3, offset: 0x191D3, size: 0x8, addend: 0x0, symName: __ZNKSt3__19basic_iosIcNS_11char_traitsIcEEE5rdbufB7v160006Ev, symObjAddr: 0x21F0, symBinAddr: 0x100005B48, symSize: 0x24 }
  - { offsetInCU: 0x191FB, offset: 0x191FB, size: 0x8, addend: 0x0, symName: __ZNSt3__19basic_iosIcNS_11char_traitsIcEEE5rdbufB7v160006EPNS_15basic_streambufIcS2_EE, symObjAddr: 0x2214, symBinAddr: 0x100005B6C, symSize: 0x44 }
  - { offsetInCU: 0x19241, offset: 0x19241, size: 0x8, addend: 0x0, symName: __ZNKSt3__114basic_ofstreamIcNS_11char_traitsIcEEE5rdbufEv, symObjAddr: 0x2258, symBinAddr: 0x100005BB0, symSize: 0x18 }
  - { offsetInCU: 0x19269, offset: 0x19269, size: 0x8, addend: 0x0, symName: __ZNSt3__16vectorI6RecordNS_9allocatorIS1_EEEC1B7v160006Ev, symObjAddr: 0x2270, symBinAddr: 0x100005BC8, symSize: 0x2C }
  - { offsetInCU: 0x19293, offset: 0x19293, size: 0x8, addend: 0x0, symName: __ZNSt3__13mapIfNS_6vectorI7AddressNS_9allocatorIS2_EEEENS_4lessIfEENS3_INS_4pairIKfS5_EEEEEC1B7v160006Ev, symObjAddr: 0x229C, symBinAddr: 0x100005BF4, symSize: 0x2C }
  - { offsetInCU: 0x19348, offset: 0x19348, size: 0x8, addend: 0x0, symName: __ZNSt3__114basic_ifstreamIcNS_11char_traitsIcEEEC1EPKcj, symObjAddr: 0x22C8, symBinAddr: 0x100005C20, symSize: 0x16C }
  - { offsetInCU: 0x19392, offset: 0x19392, size: 0x8, addend: 0x0, symName: __ZNKSt3__114basic_ifstreamIcNS_11char_traitsIcEEE7is_openEv, symObjAddr: 0x2434, symBinAddr: 0x100005D8C, symSize: 0x2C }
  - { offsetInCU: 0x193BA, offset: 0x193BA, size: 0x8, addend: 0x0, symName: __ZNSt3__112basic_stringIcNS_11char_traitsIcEENS_9allocatorIcEEEC1B7v160006Ev, symObjAddr: 0x2460, symBinAddr: 0x100005DB8, symSize: 0x2C }
  - { offsetInCU: 0x193E4, offset: 0x193E4, size: 0x8, addend: 0x0, symName: __ZNKSt3__19basic_iosIcNS_11char_traitsIcEEEcvbB7v160006Ev, symObjAddr: 0x24E8, symBinAddr: 0x100005E40, symSize: 0x2C }
  - { offsetInCU: 0x1945C, offset: 0x1945C, size: 0x8, addend: 0x0, symName: __ZNSt3__119basic_istringstreamIcNS_11char_traitsIcEENS_9allocatorIcEEEC1B7v160006ERKNS_12basic_stringIcS2_S4_EEj, symObjAddr: 0x2514, symBinAddr: 0x100005E6C, symSize: 0xFC }
  - { offsetInCU: 0x194A4, offset: 0x194A4, size: 0x8, addend: 0x0, symName: __ZNSt3__16vectorINS_12basic_stringIcNS_11char_traitsIcEENS_9allocatorIcEEEENS4_IS6_EEEC1B7v160006Ev, symObjAddr: 0x2610, symBinAddr: 0x100005F68, symSize: 0x2C }
  - { offsetInCU: 0x194CE, offset: 0x194CE, size: 0x8, addend: 0x0, symName: __ZNSt3__16vectorINS_12basic_stringIcNS_11char_traitsIcEENS_9allocatorIcEEEENS4_IS6_EEE9push_backB7v160006ERKS6_, symObjAddr: 0x2874, symBinAddr: 0x1000061CC, symSize: 0x6C }
  - { offsetInCU: 0x19505, offset: 0x19505, size: 0x8, addend: 0x0, symName: __ZNSt3__16vectorINS_12basic_stringIcNS_11char_traitsIcEENS_9allocatorIcEEEENS4_IS6_EEEixB7v160006Em, symObjAddr: 0x28E0, symBinAddr: 0x100006238, symSize: 0x2C }
  - { offsetInCU: 0x1953C, offset: 0x1953C, size: 0x8, addend: 0x0, symName: __ZNSt3__16vectorI6RecordNS_9allocatorIS1_EEE9push_backB7v160006ERKS1_, symObjAddr: 0x290C, symBinAddr: 0x100006264, symSize: 0x6C }
  - { offsetInCU: 0x19573, offset: 0x19573, size: 0x8, addend: 0x0, symName: __ZNSt3__16vectorINS_12basic_stringIcNS_11char_traitsIcEENS_9allocatorIcEEEENS4_IS6_EEED1B7v160006Ev, symObjAddr: 0x2984, symBinAddr: 0x1000062DC, symSize: 0x2C }
  - { offsetInCU: 0x195A2, offset: 0x195A2, size: 0x8, addend: 0x0, symName: __ZNSt3__119basic_istringstreamIcNS_11char_traitsIcEENS_9allocatorIcEEED1Ev, symObjAddr: 0x29B0, symBinAddr: 0x100006308, symSize: 0x40 }
  - { offsetInCU: 0x195CF, offset: 0x195CF, size: 0x8, addend: 0x0, symName: __ZNSt3__114basic_ifstreamIcNS_11char_traitsIcEEE5closeEv, symObjAddr: 0x29F0, symBinAddr: 0x100006348, symSize: 0x58 }
  - { offsetInCU: 0x195F7, offset: 0x195F7, size: 0x8, addend: 0x0, symName: __ZNSt3__16vectorI6RecordNS_9allocatorIS1_EEE5beginB7v160006Ev, symObjAddr: 0x2A90, symBinAddr: 0x1000063E8, symSize: 0x30 }
  - { offsetInCU: 0x1961F, offset: 0x1961F, size: 0x8, addend: 0x0, symName: __ZNSt3__16vectorI6RecordNS_9allocatorIS1_EEE3endB7v160006Ev, symObjAddr: 0x2AC0, symBinAddr: 0x100006418, symSize: 0x30 }
  - { offsetInCU: 0x19647, offset: 0x19647, size: 0x8, addend: 0x0, symName: __ZNKSt3__111__wrap_iterIP6RecordEdeB7v160006Ev, symObjAddr: 0x2B24, symBinAddr: 0x10000647C, symSize: 0x18 }
  - { offsetInCU: 0x1966D, offset: 0x1966D, size: 0x8, addend: 0x0, symName: __ZNSt3__111__wrap_iterIP6RecordEppB7v160006Ev, symObjAddr: 0x2B3C, symBinAddr: 0x100006494, symSize: 0x20 }
  - { offsetInCU: 0x19693, offset: 0x19693, size: 0x8, addend: 0x0, symName: __ZNSt3__16vectorI6RecordNS_9allocatorIS1_EEEaSB7v160006EOS4_, symObjAddr: 0x2B5C, symBinAddr: 0x1000064B4, symSize: 0x34 }
  - { offsetInCU: 0x196CA, offset: 0x196CA, size: 0x8, addend: 0x0, symName: __ZNSt3__16vectorI6RecordNS_9allocatorIS1_EEED1B7v160006Ev, symObjAddr: 0x2B90, symBinAddr: 0x1000064E8, symSize: 0x2C }
  - { offsetInCU: 0x196F4, offset: 0x196F4, size: 0x8, addend: 0x0, symName: __ZNSt3__13mapIfNS_6vectorI7AddressNS_9allocatorIS2_EEEENS_4lessIfEENS3_INS_4pairIKfS5_EEEEE4findB7v160006ERS9_, symObjAddr: 0x2BEC, symBinAddr: 0x100006544, symSize: 0x40 }
  - { offsetInCU: 0x19729, offset: 0x19729, size: 0x8, addend: 0x0, symName: __ZNSt3__13mapIfNS_6vectorI7AddressNS_9allocatorIS2_EEEENS_4lessIfEENS3_INS_4pairIKfS5_EEEEE3endB7v160006Ev, symObjAddr: 0x2C2C, symBinAddr: 0x100006584, symSize: 0x38 }
  - { offsetInCU: 0x1974F, offset: 0x1974F, size: 0x8, addend: 0x0, symName: __ZNSt3__16vectorI7AddressNS_9allocatorIS1_EEEC1B7v160006Ev, symObjAddr: 0x2C64, symBinAddr: 0x1000065BC, symSize: 0x2C }
  - { offsetInCU: 0x19779, offset: 0x19779, size: 0x8, addend: 0x0, symName: __ZNSt3__16vectorI7AddressNS_9allocatorIS1_EEE9push_backB7v160006EOS1_, symObjAddr: 0x2C90, symBinAddr: 0x1000065E8, symSize: 0x6C }
  - { offsetInCU: 0x197B0, offset: 0x197B0, size: 0x8, addend: 0x0, symName: __ZN7AddressC1EPvi, symObjAddr: 0x2CFC, symBinAddr: 0x100006654, symSize: 0x3C }
  - { offsetInCU: 0x197F6, offset: 0x197F6, size: 0x8, addend: 0x0, symName: __ZNSt3__13mapIfNS_6vectorI7AddressNS_9allocatorIS2_EEEENS_4lessIfEENS3_INS_4pairIKfS5_EEEEEixERS9_, symObjAddr: 0x2D38, symBinAddr: 0x100006690, symSize: 0x80 }
  - { offsetInCU: 0x1982D, offset: 0x1982D, size: 0x8, addend: 0x0, symName: __ZNSt3__16vectorI7AddressNS_9allocatorIS1_EEEaSB7v160006ERKS4_, symObjAddr: 0x2DB8, symBinAddr: 0x100006710, symSize: 0x68 }
  - { offsetInCU: 0x19864, offset: 0x19864, size: 0x8, addend: 0x0, symName: __ZNSt3__16vectorI7AddressNS_9allocatorIS1_EEED1B7v160006Ev, symObjAddr: 0x2E20, symBinAddr: 0x100006778, symSize: 0x2C }
  - { offsetInCU: 0x1988E, offset: 0x1988E, size: 0x8, addend: 0x0, symName: __ZNSt3__13mapIfNS_6vectorI7AddressNS_9allocatorIS2_EEEENS_4lessIfEENS3_INS_4pairIKfS5_EEEEE5beginB7v160006Ev, symObjAddr: 0x2E4C, symBinAddr: 0x1000067A4, symSize: 0x38 }
  - { offsetInCU: 0x198B4, offset: 0x198B4, size: 0x8, addend: 0x0, symName: __ZNKSt3__114__map_iteratorINS_15__tree_iteratorINS_12__value_typeIfNS_6vectorI7AddressNS_9allocatorIS4_EEEEEEPNS_11__tree_nodeIS8_PvEElEEEdeB7v160006Ev, symObjAddr: 0x2EB4, symBinAddr: 0x10000680C, symSize: 0x28 }
  - { offsetInCU: 0x198DA, offset: 0x198DA, size: 0x8, addend: 0x0, symName: __ZNKSt3__16vectorI7AddressNS_9allocatorIS1_EEE5beginB7v160006Ev, symObjAddr: 0x2EDC, symBinAddr: 0x100006834, symSize: 0x30 }
  - { offsetInCU: 0x19902, offset: 0x19902, size: 0x8, addend: 0x0, symName: __ZNKSt3__16vectorI7AddressNS_9allocatorIS1_EEE3endB7v160006Ev, symObjAddr: 0x2F0C, symBinAddr: 0x100006864, symSize: 0x30 }
  - { offsetInCU: 0x1992A, offset: 0x1992A, size: 0x8, addend: 0x0, symName: __ZNKSt3__111__wrap_iterIPK7AddressEdeB7v160006Ev, symObjAddr: 0x2F70, symBinAddr: 0x1000068C8, symSize: 0x18 }
  - { offsetInCU: 0x19950, offset: 0x19950, size: 0x8, addend: 0x0, symName: __ZNSt3__111__wrap_iterIPK7AddressEppB7v160006Ev, symObjAddr: 0x2F88, symBinAddr: 0x1000068E0, symSize: 0x20 }
  - { offsetInCU: 0x19976, offset: 0x19976, size: 0x8, addend: 0x0, symName: __ZNSt3__114__map_iteratorINS_15__tree_iteratorINS_12__value_typeIfNS_6vectorI7AddressNS_9allocatorIS4_EEEEEEPNS_11__tree_nodeIS8_PvEElEEEppB7v160006Ev, symObjAddr: 0x2FA8, symBinAddr: 0x100006900, symSize: 0x2C }
  - { offsetInCU: 0x1999C, offset: 0x1999C, size: 0x8, addend: 0x0, symName: __ZNKSt3__13mapIfNS_6vectorI7AddressNS_9allocatorIS2_EEEENS_4lessIfEENS3_INS_4pairIKfS5_EEEEE4sizeB7v160006Ev, symObjAddr: 0x2FD4, symBinAddr: 0x10000692C, symSize: 0x28 }
  - { offsetInCU: 0x199C2, offset: 0x199C2, size: 0x8, addend: 0x0, symName: __ZNSt3__16vectorI7AddressNS_9allocatorIS1_EEEC1ERKS4_, symObjAddr: 0x2FFC, symBinAddr: 0x100006954, symSize: 0x34 }
  - { offsetInCU: 0x19C70, offset: 0x19C70, size: 0x8, addend: 0x0, symName: __ZN4Node10getNumKeysEv, symObjAddr: 0x3030, symBinAddr: 0x100006988, symSize: 0x18 }
  - { offsetInCU: 0x19C96, offset: 0x19C96, size: 0x8, addend: 0x0, symName: __ZN4Node8getChildEii, symObjAddr: 0x3048, symBinAddr: 0x1000069A0, symSize: 0x94 }
  - { offsetInCU: 0x19CD8, offset: 0x19CD8, size: 0x8, addend: 0x0, symName: __ZN4Node6getKeyEi, symObjAddr: 0x30DC, symBinAddr: 0x100006A34, symSize: 0x24 }
  - { offsetInCU: 0x19D0C, offset: 0x19D0C, size: 0x8, addend: 0x0, symName: __ZNSt3__114basic_ofstreamIcNS_11char_traitsIcEEE5closeEv, symObjAddr: 0x3100, symBinAddr: 0x100006A58, symSize: 0x58 }
  - { offsetInCU: 0x19D39, offset: 0x19D39, size: 0x8, addend: 0x0, symName: __ZNSt3__114basic_ifstreamIcNS_11char_traitsIcEEED1Ev, symObjAddr: 0x3158, symBinAddr: 0x100006AB0, symSize: 0x40 }
  - { offsetInCU: 0x19D66, offset: 0x19D66, size: 0x8, addend: 0x0, symName: __ZNSt3__13mapIfNS_6vectorI7AddressNS_9allocatorIS2_EEEENS_4lessIfEENS3_INS_4pairIKfS5_EEEEED1B7v160006Ev, symObjAddr: 0x3198, symBinAddr: 0x100006AF0, symSize: 0x2C }
  - { offsetInCU: 0x19D95, offset: 0x19D95, size: 0x8, addend: 0x0, symName: __ZNSt3__114basic_ofstreamIcNS_11char_traitsIcEEED1Ev, symObjAddr: 0x31C4, symBinAddr: 0x100006B1C, symSize: 0x40 }
  - { offsetInCU: 0x19DC2, offset: 0x19DC2, size: 0x8, addend: 0x0, symName: __ZNSt3__119basic_istringstreamIcNS_11char_traitsIcEENS_9allocatorIcEEED2Ev, symObjAddr: 0x3204, symBinAddr: 0x100006B5C, symSize: 0x64 }
  - { offsetInCU: 0x19DFC, offset: 0x19DFC, size: 0x8, addend: 0x0, symName: __ZTv0_n24_NSt3__119basic_istringstreamIcNS_11char_traitsIcEENS_9allocatorIcEEED1Ev, symObjAddr: 0x3268, symBinAddr: 0x100006BC0, symSize: 0x28 }
  - { offsetInCU: 0x19E18, offset: 0x19E18, size: 0x8, addend: 0x0, symName: __ZNSt3__115basic_stringbufIcNS_11char_traitsIcEENS_9allocatorIcEEED1Ev, symObjAddr: 0x3290, symBinAddr: 0x100006BE8, symSize: 0x2C }
  - { offsetInCU: 0x19E45, offset: 0x19E45, size: 0x8, addend: 0x0, symName: __ZNSt3__115basic_stringbufIcNS_11char_traitsIcEENS_9allocatorIcEEED2Ev, symObjAddr: 0x32BC, symBinAddr: 0x100006C14, symSize: 0x48 }
  - { offsetInCU: 0x19E72, offset: 0x19E72, size: 0x8, addend: 0x0, symName: __ZNKSt3__111__wrap_iterIP6RecordE4baseB7v160006Ev, symObjAddr: 0x334C, symBinAddr: 0x100006CA4, symSize: 0x18 }
  - { offsetInCU: 0x19E98, offset: 0x19E98, size: 0x8, addend: 0x0, symName: __ZN7AddressC2EPvi, symObjAddr: 0x3364, symBinAddr: 0x100006CBC, symSize: 0x2C }
  - { offsetInCU: 0x19EDE, offset: 0x19EDE, size: 0x8, addend: 0x0, symName: __ZNKSt3__111__wrap_iterIPK7AddressE4baseB7v160006Ev, symObjAddr: 0x33D8, symBinAddr: 0x100006D30, symSize: 0x18 }
  - { offsetInCU: 0x19F04, offset: 0x19F04, size: 0x8, addend: 0x0, symName: __ZNSt3__16vectorINS0_I7AddressNS_9allocatorIS1_EEEENS2_IS4_EEEixB7v160006Em, symObjAddr: 0x33F0, symBinAddr: 0x100006D48, symSize: 0x2C }
  - { offsetInCU: 0x19F3B, offset: 0x19F3B, size: 0x8, addend: 0x0, symName: __ZNSt3__16vectorI7AddressNS_9allocatorIS1_EEEixB7v160006Em, symObjAddr: 0x341C, symBinAddr: 0x100006D74, symSize: 0x24 }
  - { offsetInCU: 0x19F72, offset: 0x19F72, size: 0x8, addend: 0x0, symName: __ZNSt3__114basic_ifstreamIcNS_11char_traitsIcEEED2Ev, symObjAddr: 0x3440, symBinAddr: 0x100006D98, symSize: 0x64 }
  - { offsetInCU: 0x19FAC, offset: 0x19FAC, size: 0x8, addend: 0x0, symName: __ZTv0_n24_NSt3__114basic_ifstreamIcNS_11char_traitsIcEEED1Ev, symObjAddr: 0x34A4, symBinAddr: 0x100006DFC, symSize: 0x28 }
  - { offsetInCU: 0x19FC3, offset: 0x19FC3, size: 0x8, addend: 0x0, symName: __ZNSt3__114basic_ofstreamIcNS_11char_traitsIcEEED2Ev, symObjAddr: 0x34CC, symBinAddr: 0x100006E24, symSize: 0x64 }
  - { offsetInCU: 0x19FFD, offset: 0x19FFD, size: 0x8, addend: 0x0, symName: __ZTv0_n24_NSt3__114basic_ofstreamIcNS_11char_traitsIcEEED1Ev, symObjAddr: 0x3530, symBinAddr: 0x100006E88, symSize: 0x28 }
  - { offsetInCU: 0x1A014, offset: 0x1A014, size: 0x8, addend: 0x0, symName: __ZNSt3__112basic_stringIcNS_11char_traitsIcEENS_9allocatorIcEEEC2B7v160006Ev, symObjAddr: 0x3558, symBinAddr: 0x100006EB0, symSize: 0x54 }
  - { offsetInCU: 0x1A044, offset: 0x1A044, size: 0x8, addend: 0x0, symName: __ZNSt3__117__compressed_pairINS_12basic_stringIcNS_11char_traitsIcEENS_9allocatorIcEEE5__repES5_EC1B7v160006INS_18__default_init_tagESA_EEOT_OT0_, symObjAddr: 0x35AC, symBinAddr: 0x100006F04, symSize: 0x3C }
  - { offsetInCU: 0x1A09C, offset: 0x1A09C, size: 0x8, addend: 0x0, symName: __ZNSt3__112basic_stringIcNS_11char_traitsIcEENS_9allocatorIcEEE14__default_initB7v160006Ev, symObjAddr: 0x35F8, symBinAddr: 0x100006F50, symSize: 0x40 }
  - { offsetInCU: 0x1A0C2, offset: 0x1A0C2, size: 0x8, addend: 0x0, symName: __ZNSt3__117__compressed_pairINS_12basic_stringIcNS_11char_traitsIcEENS_9allocatorIcEEE5__repES5_EC2B7v160006INS_18__default_init_tagESA_EEOT_OT0_, symObjAddr: 0x3638, symBinAddr: 0x100006F90, symSize: 0x3C }
  - { offsetInCU: 0x1A11A, offset: 0x1A11A, size: 0x8, addend: 0x0, symName: __ZNSt3__122__compressed_pair_elemINS_12basic_stringIcNS_11char_traitsIcEENS_9allocatorIcEEE5__repELi0ELb0EEC2B7v160006ENS_18__default_init_tagE, symObjAddr: 0x3674, symBinAddr: 0x100006FCC, symSize: 0x14 }
  - { offsetInCU: 0x1A14E, offset: 0x1A14E, size: 0x8, addend: 0x0, symName: __ZNSt3__122__compressed_pair_elemINS_9allocatorIcEELi1ELb1EEC2B7v160006ENS_18__default_init_tagE, symObjAddr: 0x3688, symBinAddr: 0x100006FE0, symSize: 0x2C }
  - { offsetInCU: 0x1A182, offset: 0x1A182, size: 0x8, addend: 0x0, symName: __ZNSt3__19allocatorIcEC2B7v160006Ev, symObjAddr: 0x36B4, symBinAddr: 0x10000700C, symSize: 0x2C }
  - { offsetInCU: 0x1A1AC, offset: 0x1A1AC, size: 0x8, addend: 0x0, symName: __ZNSt3__116__non_trivial_ifILb1ENS_9allocatorIcEEEC2B7v160006Ev, symObjAddr: 0x36E0, symBinAddr: 0x100007038, symSize: 0x14 }
  - { offsetInCU: 0x1A1D6, offset: 0x1A1D6, size: 0x8, addend: 0x0, symName: __ZNSt3__117__compressed_pairINS_12basic_stringIcNS_11char_traitsIcEENS_9allocatorIcEEE5__repES5_E5firstB7v160006Ev, symObjAddr: 0x36F4, symBinAddr: 0x10000704C, symSize: 0x24 }
  - { offsetInCU: 0x1A1FC, offset: 0x1A1FC, size: 0x8, addend: 0x0, symName: __ZNSt3__122__compressed_pair_elemINS_12basic_stringIcNS_11char_traitsIcEENS_9allocatorIcEEE5__repELi0ELb0EE5__getB7v160006Ev, symObjAddr: 0x3718, symBinAddr: 0x100007070, symSize: 0x14 }
  - { offsetInCU: 0x1A222, offset: 0x1A222, size: 0x8, addend: 0x0, symName: __ZNSt3__16vectorI7AddressNS_9allocatorIS1_EEEC2ERKS4_, symObjAddr: 0x372C, symBinAddr: 0x100007084, symSize: 0x114 }
  - { offsetInCU: 0x1A28B, offset: 0x1A28B, size: 0x8, addend: 0x0, symName: __ZNSt3__116allocator_traitsINS_9allocatorI7AddressEEE37select_on_container_copy_constructionB7v160006IS3_vvEES3_RKS3_, symObjAddr: 0x3840, symBinAddr: 0x100007198, symSize: 0x10 }
  - { offsetInCU: 0x1A2BA, offset: 0x1A2BA, size: 0x8, addend: 0x0, symName: __ZNKSt3__16vectorI7AddressNS_9allocatorIS1_EEE7__allocB7v160006Ev, symObjAddr: 0x3850, symBinAddr: 0x1000071A8, symSize: 0x28 }
  - { offsetInCU: 0x1A2EC, offset: 0x1A2EC, size: 0x8, addend: 0x0, symName: __ZNSt3__117__compressed_pairIP7AddressNS_9allocatorIS1_EEEC1B7v160006IDnS4_EEOT_OT0_, symObjAddr: 0x3878, symBinAddr: 0x1000071D0, symSize: 0x3C }
  - { offsetInCU: 0x1A344, offset: 0x1A344, size: 0x8, addend: 0x0, symName: __ZNSt3__16vectorI7AddressNS_9allocatorIS1_EEE16__destroy_vectorC1ERS4_, symObjAddr: 0x38F4, symBinAddr: 0x10000724C, symSize: 0x34 }
  - { offsetInCU: 0x1A37D, offset: 0x1A37D, size: 0x8, addend: 0x0, symName: __ZNKSt3__16vectorI7AddressNS_9allocatorIS1_EEE4sizeB7v160006Ev, symObjAddr: 0x3938, symBinAddr: 0x100007290, symSize: 0x28 }
  - { offsetInCU: 0x1A3A3, offset: 0x1A3A3, size: 0x8, addend: 0x0, symName: __ZNSt3__16vectorI7AddressNS_9allocatorIS1_EEE11__vallocateB7v160006Em, symObjAddr: 0x3960, symBinAddr: 0x1000072B8, symSize: 0xAC }
  - { offsetInCU: 0x1A3E7, offset: 0x1A3E7, size: 0x8, addend: 0x0, symName: __ZNSt3__16vectorI7AddressNS_9allocatorIS1_EEE18__construct_at_endIPS1_Li0EEEvT_S7_m, symObjAddr: 0x3A0C, symBinAddr: 0x100007364, symSize: 0x8C }
  - { offsetInCU: 0x1A45A, offset: 0x1A45A, size: 0x8, addend: 0x0, symName: __ZNSt3__128__exception_guard_exceptionsINS_6vectorI7AddressNS_9allocatorIS2_EEE16__destroy_vectorEE10__completeB7v160006Ev, symObjAddr: 0x3A98, symBinAddr: 0x1000073F0, symSize: 0x1C }
  - { offsetInCU: 0x1A480, offset: 0x1A480, size: 0x8, addend: 0x0, symName: __ZNSt3__128__exception_guard_exceptionsINS_6vectorI7AddressNS_9allocatorIS2_EEE16__destroy_vectorEED1B7v160006Ev, symObjAddr: 0x3AB4, symBinAddr: 0x10000740C, symSize: 0x2C }
  - { offsetInCU: 0x1A4AA, offset: 0x1A4AA, size: 0x8, addend: 0x0, symName: __ZNKSt3__117__compressed_pairIP7AddressNS_9allocatorIS1_EEE6secondB7v160006Ev, symObjAddr: 0x3AE0, symBinAddr: 0x100007438, symSize: 0x24 }
  - { offsetInCU: 0x1A4D0, offset: 0x1A4D0, size: 0x8, addend: 0x0, symName: __ZNKSt3__122__compressed_pair_elemINS_9allocatorI7AddressEELi1ELb1EE5__getB7v160006Ev, symObjAddr: 0x3B04, symBinAddr: 0x10000745C, symSize: 0x14 }
  - { offsetInCU: 0x1A4F6, offset: 0x1A4F6, size: 0x8, addend: 0x0, symName: __ZNSt3__117__compressed_pairIP7AddressNS_9allocatorIS1_EEEC2B7v160006IDnS4_EEOT_OT0_, symObjAddr: 0x3B18, symBinAddr: 0x100007470, symSize: 0x44 }
  - { offsetInCU: 0x1A54E, offset: 0x1A54E, size: 0x8, addend: 0x0, symName: __ZNSt3__122__compressed_pair_elemIP7AddressLi0ELb0EEC2B7v160006IDnvEEOT_, symObjAddr: 0x3B5C, symBinAddr: 0x1000074B4, symSize: 0x1C }
  - { offsetInCU: 0x1A590, offset: 0x1A590, size: 0x8, addend: 0x0, symName: __ZNSt3__122__compressed_pair_elemINS_9allocatorI7AddressEELi1ELb1EEC2B7v160006IS3_vEEOT_, symObjAddr: 0x3B78, symBinAddr: 0x1000074D0, symSize: 0x18 }
  - { offsetInCU: 0x1A5D2, offset: 0x1A5D2, size: 0x8, addend: 0x0, symName: __ZNSt3__128__exception_guard_exceptionsINS_6vectorI7AddressNS_9allocatorIS2_EEE16__destroy_vectorEEC1B7v160006ES6_, symObjAddr: 0x3B90, symBinAddr: 0x1000074E8, symSize: 0x34 }
  - { offsetInCU: 0x1A60A, offset: 0x1A60A, size: 0x8, addend: 0x0, symName: __ZNSt3__128__exception_guard_exceptionsINS_6vectorI7AddressNS_9allocatorIS2_EEE16__destroy_vectorEEC2B7v160006ES6_, symObjAddr: 0x3BC4, symBinAddr: 0x10000751C, symSize: 0x24 }
  - { offsetInCU: 0x1A642, offset: 0x1A642, size: 0x8, addend: 0x0, symName: __ZNSt3__16vectorI7AddressNS_9allocatorIS1_EEE16__destroy_vectorC2ERS4_, symObjAddr: 0x3BE8, symBinAddr: 0x100007540, symSize: 0x20 }
  - { offsetInCU: 0x1A67B, offset: 0x1A67B, size: 0x8, addend: 0x0, symName: __ZNKSt3__16vectorI7AddressNS_9allocatorIS1_EEE8max_sizeEv, symObjAddr: 0x3C08, symBinAddr: 0x100007560, symSize: 0x60 }
  - { offsetInCU: 0x1A6A3, offset: 0x1A6A3, size: 0x8, addend: 0x0, symName: __ZNKSt3__16vectorI7AddressNS_9allocatorIS1_EEE20__throw_length_errorB7v160006Ev, symObjAddr: 0x3C68, symBinAddr: 0x1000075C0, symSize: 0x1C }
  - { offsetInCU: 0x1A6C9, offset: 0x1A6C9, size: 0x8, addend: 0x0, symName: __ZNSt3__16vectorI7AddressNS_9allocatorIS1_EEE7__allocB7v160006Ev, symObjAddr: 0x3CC4, symBinAddr: 0x10000761C, symSize: 0x28 }
  - { offsetInCU: 0x1A6EF, offset: 0x1A6EF, size: 0x8, addend: 0x0, symName: __ZNSt3__16vectorI7AddressNS_9allocatorIS1_EEE9__end_capB7v160006Ev, symObjAddr: 0x3CEC, symBinAddr: 0x100007644, symSize: 0x28 }
  - { offsetInCU: 0x1A715, offset: 0x1A715, size: 0x8, addend: 0x0, symName: __ZNKSt3__16vectorI7AddressNS_9allocatorIS1_EEE14__annotate_newB7v160006Em, symObjAddr: 0x3D14, symBinAddr: 0x10000766C, symSize: 0xAC }
  - { offsetInCU: 0x1A74A, offset: 0x1A74A, size: 0x8, addend: 0x0, symName: __ZNSt3__116allocator_traitsINS_9allocatorI7AddressEEE8max_sizeB7v160006IS3_vEEmRKS3_, symObjAddr: 0x3DEC, symBinAddr: 0x100007744, symSize: 0x24 }
  - { offsetInCU: 0x1A778, offset: 0x1A778, size: 0x8, addend: 0x0, symName: __ZNSt3__114numeric_limitsIlE3maxB7v160006Ev, symObjAddr: 0x3E10, symBinAddr: 0x100007768, symSize: 0x14 }
  - { offsetInCU: 0x1A796, offset: 0x1A796, size: 0x8, addend: 0x0, symName: __ZNKSt3__16__lessImmEclB7v160006ERKmS3_, symObjAddr: 0x3E78, symBinAddr: 0x1000077D0, symSize: 0x34 }
  - { offsetInCU: 0x1A7D8, offset: 0x1A7D8, size: 0x8, addend: 0x0, symName: __ZNKSt3__19allocatorI7AddressE8max_sizeB7v160006Ev, symObjAddr: 0x3EAC, symBinAddr: 0x100007804, symSize: 0x14 }
  - { offsetInCU: 0x1A7FE, offset: 0x1A7FE, size: 0x8, addend: 0x0, symName: __ZNSt3__123__libcpp_numeric_limitsIlLb1EE3maxB7v160006Ev, symObjAddr: 0x3EC0, symBinAddr: 0x100007818, symSize: 0x8 }
  - { offsetInCU: 0x1A812, offset: 0x1A812, size: 0x8, addend: 0x0, symName: __ZNSt12length_errorC1B7v160006EPKc, symObjAddr: 0x3F2C, symBinAddr: 0x100007884, symSize: 0x34 }
  - { offsetInCU: 0x1A84A, offset: 0x1A84A, size: 0x8, addend: 0x0, symName: __ZNSt12length_errorC2B7v160006EPKc, symObjAddr: 0x3F60, symBinAddr: 0x1000078B8, symSize: 0x4C }
  - { offsetInCU: 0x1A882, offset: 0x1A882, size: 0x8, addend: 0x0, symName: __ZNSt3__19allocatorI7AddressE8allocateB7v160006Em, symObjAddr: 0x3FAC, symBinAddr: 0x100007904, symSize: 0x58 }
  - { offsetInCU: 0x1A8B6, offset: 0x1A8B6, size: 0x8, addend: 0x0, symName: __ZNSt3__117__compressed_pairIP7AddressNS_9allocatorIS1_EEE6secondB7v160006Ev, symObjAddr: 0x4084, symBinAddr: 0x1000079DC, symSize: 0x24 }
  - { offsetInCU: 0x1A8DC, offset: 0x1A8DC, size: 0x8, addend: 0x0, symName: __ZNSt3__122__compressed_pair_elemINS_9allocatorI7AddressEELi1ELb1EE5__getB7v160006Ev, symObjAddr: 0x40A8, symBinAddr: 0x100007A00, symSize: 0x14 }
  - { offsetInCU: 0x1A902, offset: 0x1A902, size: 0x8, addend: 0x0, symName: __ZNSt3__117__compressed_pairIP7AddressNS_9allocatorIS1_EEE5firstB7v160006Ev, symObjAddr: 0x40BC, symBinAddr: 0x100007A14, symSize: 0x24 }
  - { offsetInCU: 0x1A928, offset: 0x1A928, size: 0x8, addend: 0x0, symName: __ZNSt3__122__compressed_pair_elemIP7AddressLi0ELb0EE5__getB7v160006Ev, symObjAddr: 0x40E0, symBinAddr: 0x100007A38, symSize: 0x14 }
  - { offsetInCU: 0x1A94E, offset: 0x1A94E, size: 0x8, addend: 0x0, symName: __ZNKSt3__16vectorI7AddressNS_9allocatorIS1_EEE31__annotate_contiguous_containerB7v160006EPKvS6_S6_S6_, symObjAddr: 0x40F4, symBinAddr: 0x100007A4C, symSize: 0x20 }
  - { offsetInCU: 0x1A9A0, offset: 0x1A9A0, size: 0x8, addend: 0x0, symName: __ZNKSt3__16vectorI7AddressNS_9allocatorIS1_EEE4dataB7v160006Ev, symObjAddr: 0x4114, symBinAddr: 0x100007A6C, symSize: 0x28 }
  - { offsetInCU: 0x1A9C6, offset: 0x1A9C6, size: 0x8, addend: 0x0, symName: __ZNKSt3__16vectorI7AddressNS_9allocatorIS1_EEE8capacityB7v160006Ev, symObjAddr: 0x413C, symBinAddr: 0x100007A94, symSize: 0x40 }
  - { offsetInCU: 0x1A9EC, offset: 0x1A9EC, size: 0x8, addend: 0x0, symName: __ZNKSt3__16vectorI7AddressNS_9allocatorIS1_EEE9__end_capB7v160006Ev, symObjAddr: 0x4190, symBinAddr: 0x100007AE8, symSize: 0x28 }
  - { offsetInCU: 0x1AA12, offset: 0x1AA12, size: 0x8, addend: 0x0, symName: __ZNKSt3__117__compressed_pairIP7AddressNS_9allocatorIS1_EEE5firstB7v160006Ev, symObjAddr: 0x41B8, symBinAddr: 0x100007B10, symSize: 0x24 }
  - { offsetInCU: 0x1AA38, offset: 0x1AA38, size: 0x8, addend: 0x0, symName: __ZNKSt3__122__compressed_pair_elemIP7AddressLi0ELb0EE5__getB7v160006Ev, symObjAddr: 0x41DC, symBinAddr: 0x100007B34, symSize: 0x14 }
  - { offsetInCU: 0x1AA77, offset: 0x1AA77, size: 0x8, addend: 0x0, symName: __ZNSt3__16vectorI7AddressNS_9allocatorIS1_EEE21_ConstructTransactionC1B7v160006ERS4_m, symObjAddr: 0x41F0, symBinAddr: 0x100007B48, symSize: 0x3C }
  - { offsetInCU: 0x1AABF, offset: 0x1AABF, size: 0x8, addend: 0x0, symName: __ZNSt3__16vectorI7AddressNS_9allocatorIS1_EEE21_ConstructTransactionD1B7v160006Ev, symObjAddr: 0x4320, symBinAddr: 0x100007C78, symSize: 0x2C }
  - { offsetInCU: 0x1AAE9, offset: 0x1AAE9, size: 0x8, addend: 0x0, symName: __ZNSt3__16vectorI7AddressNS_9allocatorIS1_EEE21_ConstructTransactionC2B7v160006ERS4_m, symObjAddr: 0x434C, symBinAddr: 0x100007CA4, symSize: 0x44 }
  - { offsetInCU: 0x1AB31, offset: 0x1AB31, size: 0x8, addend: 0x0, symName: __ZNSt3__129_AllocatorDestroyRangeReverseINS_9allocatorI7AddressEEPS2_EC1B7v160006ERS3_RS4_S7_, symObjAddr: 0x43DC, symBinAddr: 0x100007D34, symSize: 0x44 }
  - { offsetInCU: 0x1AB88, offset: 0x1AB88, size: 0x8, addend: 0x0, symName: __ZNSt3__116allocator_traitsINS_9allocatorI7AddressEEE9constructB7v160006IS2_JRS2_EvEEvRS3_PT_DpOT0_, symObjAddr: 0x4420, symBinAddr: 0x100007D78, symSize: 0x34 }
  - { offsetInCU: 0x1ABDF, offset: 0x1ABDF, size: 0x8, addend: 0x0, symName: __ZNSt3__128__exception_guard_exceptionsINS_29_AllocatorDestroyRangeReverseINS_9allocatorI7AddressEEPS3_EEE10__completeB7v160006Ev, symObjAddr: 0x4454, symBinAddr: 0x100007DAC, symSize: 0x1C }
  - { offsetInCU: 0x1AC05, offset: 0x1AC05, size: 0x8, addend: 0x0, symName: __ZNSt3__128__exception_guard_exceptionsINS_29_AllocatorDestroyRangeReverseINS_9allocatorI7AddressEEPS3_EEED1B7v160006Ev, symObjAddr: 0x4470, symBinAddr: 0x100007DC8, symSize: 0x2C }
  - { offsetInCU: 0x1AC2F, offset: 0x1AC2F, size: 0x8, addend: 0x0, symName: __ZNSt3__128__exception_guard_exceptionsINS_29_AllocatorDestroyRangeReverseINS_9allocatorI7AddressEEPS3_EEEC1B7v160006ES6_, symObjAddr: 0x449C, symBinAddr: 0x100007DF4, symSize: 0x34 }
  - { offsetInCU: 0x1AC68, offset: 0x1AC68, size: 0x8, addend: 0x0, symName: __ZNSt3__128__exception_guard_exceptionsINS_29_AllocatorDestroyRangeReverseINS_9allocatorI7AddressEEPS3_EEEC2B7v160006ES6_, symObjAddr: 0x44D0, symBinAddr: 0x100007E28, symSize: 0x30 }
  - { offsetInCU: 0x1ACA1, offset: 0x1ACA1, size: 0x8, addend: 0x0, symName: __ZNSt3__129_AllocatorDestroyRangeReverseINS_9allocatorI7AddressEEPS2_EC2B7v160006ERS3_RS4_S7_, symObjAddr: 0x4500, symBinAddr: 0x100007E58, symSize: 0x38 }
  - { offsetInCU: 0x1ACF8, offset: 0x1ACF8, size: 0x8, addend: 0x0, symName: __ZNSt3__19allocatorI7AddressE9constructB7v160006IS1_JRS1_EEEvPT_DpOT0_, symObjAddr: 0x4538, symBinAddr: 0x100007E90, symSize: 0x28 }
  - { offsetInCU: 0x1AD4E, offset: 0x1AD4E, size: 0x8, addend: 0x0, symName: __ZNSt3__128__exception_guard_exceptionsINS_29_AllocatorDestroyRangeReverseINS_9allocatorI7AddressEEPS3_EEED2B7v160006Ev, symObjAddr: 0x4560, symBinAddr: 0x100007EB8, symSize: 0x50 }
  - { offsetInCU: 0x1AD78, offset: 0x1AD78, size: 0x8, addend: 0x0, symName: __ZNKSt3__129_AllocatorDestroyRangeReverseINS_9allocatorI7AddressEEPS2_EclB7v160006Ev, symObjAddr: 0x45B0, symBinAddr: 0x100007F08, symSize: 0x68 }
  - { offsetInCU: 0x1AD9E, offset: 0x1AD9E, size: 0x8, addend: 0x0, symName: __ZNSt3__116reverse_iteratorIP7AddressEC1B7v160006ES2_, symObjAddr: 0x4688, symBinAddr: 0x100007FE0, symSize: 0x34 }
  - { offsetInCU: 0x1ADD6, offset: 0x1ADD6, size: 0x8, addend: 0x0, symName: __ZNSt3__116allocator_traitsINS_9allocatorI7AddressEEE7destroyB7v160006IS2_vEEvRS3_PT_, symObjAddr: 0x4704, symBinAddr: 0x10000805C, symSize: 0x2C }
  - { offsetInCU: 0x1AE13, offset: 0x1AE13, size: 0x8, addend: 0x0, symName: __ZNSt3__116reverse_iteratorIP7AddressEppB7v160006Ev, symObjAddr: 0x4754, symBinAddr: 0x1000080AC, symSize: 0x20 }
  - { offsetInCU: 0x1AE39, offset: 0x1AE39, size: 0x8, addend: 0x0, symName: __ZNKSt3__116reverse_iteratorIP7AddressE4baseB7v160006Ev, symObjAddr: 0x4774, symBinAddr: 0x1000080CC, symSize: 0x18 }
  - { offsetInCU: 0x1AE5F, offset: 0x1AE5F, size: 0x8, addend: 0x0, symName: __ZNSt3__19allocatorI7AddressE7destroyB7v160006EPS1_, symObjAddr: 0x478C, symBinAddr: 0x1000080E4, symSize: 0x14 }
  - { offsetInCU: 0x1AE98, offset: 0x1AE98, size: 0x8, addend: 0x0, symName: __ZNSt3__119__to_address_helperINS_16reverse_iteratorIP7AddressEEvE6__callB7v160006ERKS4_, symObjAddr: 0x47A0, symBinAddr: 0x1000080F8, symSize: 0x38 }
  - { offsetInCU: 0x1AEBB, offset: 0x1AEBB, size: 0x8, addend: 0x0, symName: __ZNKSt3__116reverse_iteratorIP7AddressEptB7v160006Ev, symObjAddr: 0x47D8, symBinAddr: 0x100008130, symSize: 0x24 }
  - { offsetInCU: 0x1AEE1, offset: 0x1AEE1, size: 0x8, addend: 0x0, symName: __ZNKSt3__116reverse_iteratorIP7AddressEdeB7v160006Ev, symObjAddr: 0x47FC, symBinAddr: 0x100008154, symSize: 0x28 }
  - { offsetInCU: 0x1AF15, offset: 0x1AF15, size: 0x8, addend: 0x0, symName: __ZNSt3__116reverse_iteratorIP7AddressEC2B7v160006ES2_, symObjAddr: 0x4824, symBinAddr: 0x10000817C, symSize: 0x28 }
  - { offsetInCU: 0x1AF4D, offset: 0x1AF4D, size: 0x8, addend: 0x0, symName: __ZNSt3__16vectorI7AddressNS_9allocatorIS1_EEE21_ConstructTransactionD2B7v160006Ev, symObjAddr: 0x484C, symBinAddr: 0x1000081A4, symSize: 0x20 }
  - { offsetInCU: 0x1AF77, offset: 0x1AF77, size: 0x8, addend: 0x0, symName: __ZNSt3__128__exception_guard_exceptionsINS_6vectorI7AddressNS_9allocatorIS2_EEE16__destroy_vectorEED2B7v160006Ev, symObjAddr: 0x486C, symBinAddr: 0x1000081C4, symSize: 0x50 }
  - { offsetInCU: 0x1AFA1, offset: 0x1AFA1, size: 0x8, addend: 0x0, symName: __ZNSt3__16vectorI7AddressNS_9allocatorIS1_EEE16__destroy_vectorclB7v160006Ev, symObjAddr: 0x48BC, symBinAddr: 0x100008214, symSize: 0x9C }
  - { offsetInCU: 0x1AFC7, offset: 0x1AFC7, size: 0x8, addend: 0x0, symName: __ZNKSt3__16vectorI7AddressNS_9allocatorIS1_EEE17__annotate_deleteB7v160006Ev, symObjAddr: 0x4958, symBinAddr: 0x1000082B0, symSize: 0xB8 }
  - { offsetInCU: 0x1AFED, offset: 0x1AFED, size: 0x8, addend: 0x0, symName: __ZNSt3__16vectorI7AddressNS_9allocatorIS1_EEE7__clearB7v160006Ev, symObjAddr: 0x4A20, symBinAddr: 0x100008378, symSize: 0x28 }
  - { offsetInCU: 0x1B013, offset: 0x1B013, size: 0x8, addend: 0x0, symName: __ZNSt3__116allocator_traitsINS_9allocatorI7AddressEEE10deallocateB7v160006ERS3_PS2_m, symObjAddr: 0x4A48, symBinAddr: 0x1000083A0, symSize: 0x34 }
  - { offsetInCU: 0x1B055, offset: 0x1B055, size: 0x8, addend: 0x0, symName: __ZNSt3__16vectorI7AddressNS_9allocatorIS1_EEE22__base_destruct_at_endB7v160006EPS1_, symObjAddr: 0x4A7C, symBinAddr: 0x1000083D4, symSize: 0x8C }
  - { offsetInCU: 0x1B099, offset: 0x1B099, size: 0x8, addend: 0x0, symName: __ZNSt3__19allocatorI7AddressE10deallocateB7v160006EPS1_m, symObjAddr: 0x4B08, symBinAddr: 0x100008460, symSize: 0x40 }
  - { offsetInCU: 0x1B0DB, offset: 0x1B0DB, size: 0x8, addend: 0x0, symName: __ZNSt3__16vectorI7AddressNS_9allocatorIS1_EEE19__copy_assign_allocB7v160006ERKS4_, symObjAddr: 0x4BC4, symBinAddr: 0x10000851C, symSize: 0x2C }
  - { offsetInCU: 0x1B110, offset: 0x1B110, size: 0x8, addend: 0x0, symName: __ZNSt3__16vectorI7AddressNS_9allocatorIS1_EEE6assignIPS1_Li0EEEvT_S7_, symObjAddr: 0x4BF0, symBinAddr: 0x100008548, symSize: 0x17C }
  - { offsetInCU: 0x1B1AF, offset: 0x1B1AF, size: 0x8, addend: 0x0, symName: __ZNSt3__16vectorI7AddressNS_9allocatorIS1_EEE19__copy_assign_allocB7v160006ERKS4_NS_17integral_constantIbLb0EEE, symObjAddr: 0x4D6C, symBinAddr: 0x1000086C4, symSize: 0x14 }
  - { offsetInCU: 0x1B1EB, offset: 0x1B1EB, size: 0x8, addend: 0x0, symName: __ZNSt3__16vectorI7AddressNS_9allocatorIS1_EEE17__destruct_at_endB7v160006EPS1_, symObjAddr: 0x4E3C, symBinAddr: 0x100008794, symSize: 0x60 }
  - { offsetInCU: 0x1B22F, offset: 0x1B22F, size: 0x8, addend: 0x0, symName: __ZNSt3__16vectorI7AddressNS_9allocatorIS1_EEE13__vdeallocateEv, symObjAddr: 0x4E9C, symBinAddr: 0x1000087F4, symSize: 0x8C }
  - { offsetInCU: 0x1B257, offset: 0x1B257, size: 0x8, addend: 0x0, symName: __ZNKSt3__16vectorI7AddressNS_9allocatorIS1_EEE11__recommendB7v160006Em, symObjAddr: 0x4F28, symBinAddr: 0x100008880, symSize: 0xB4 }
  - { offsetInCU: 0x1B2D0, offset: 0x1B2D0, size: 0x8, addend: 0x0, symName: __ZNKSt3__114__copy_trivialclB7v160006I7AddressS2_Li0EEENS_4pairIPT_PT0_EES5_S5_S7_, symObjAddr: 0x51EC, symBinAddr: 0x100008B44, symSize: 0x48 }
  - { offsetInCU: 0x1B33E, offset: 0x1B33E, size: 0x8, addend: 0x0, symName: __ZNSt3__14pairIP7AddressS2_EC1B7v160006IRS2_S2_LPv0EEEOT_OT0_, symObjAddr: 0x53B4, symBinAddr: 0x100008D0C, symSize: 0x3C }
  - { offsetInCU: 0x1B39C, offset: 0x1B39C, size: 0x8, addend: 0x0, symName: __ZNSt3__14pairIP7AddressS2_EC2B7v160006IRS2_S2_LPv0EEEOT_OT0_, symObjAddr: 0x53F0, symBinAddr: 0x100008D48, symSize: 0x34 }
  - { offsetInCU: 0x1B3FA, offset: 0x1B3FA, size: 0x8, addend: 0x0, symName: __ZNSt3__118__unwrap_iter_implIP7AddressLb1EE8__unwrapB7v160006ES2_, symObjAddr: 0x5424, symBinAddr: 0x100008D7C, symSize: 0x24 }
  - { offsetInCU: 0x1B41D, offset: 0x1B41D, size: 0x8, addend: 0x0, symName: __ZNSt3__14pairIP7AddressS2_EC1B7v160006IS2_S2_LPv0EEEOT_OT0_, symObjAddr: 0x5448, symBinAddr: 0x100008DA0, symSize: 0x3C }
  - { offsetInCU: 0x1B47B, offset: 0x1B47B, size: 0x8, addend: 0x0, symName: __ZNSt3__14pairIP7AddressS2_EC2B7v160006IS2_S2_LPv0EEEOT_OT0_, symObjAddr: 0x5484, symBinAddr: 0x100008DDC, symSize: 0x34 }
  - { offsetInCU: 0x1B4D9, offset: 0x1B4D9, size: 0x8, addend: 0x0, symName: __ZNSt3__118__unwrap_iter_implIP7AddressLb1EE8__rewrapB7v160006ES2_S2_, symObjAddr: 0x54B8, symBinAddr: 0x100008E10, symSize: 0x50 }
  - { offsetInCU: 0x1B50A, offset: 0x1B50A, size: 0x8, addend: 0x0, symName: __ZNSt3__16vectorI7AddressNS_9allocatorIS1_EEE27__invalidate_iterators_pastB7v160006EPS1_, symObjAddr: 0x5508, symBinAddr: 0x100008E60, symSize: 0x14 }
  - { offsetInCU: 0x1B541, offset: 0x1B541, size: 0x8, addend: 0x0, symName: __ZNKSt3__16vectorI7AddressNS_9allocatorIS1_EEE17__annotate_shrinkB7v160006Em, symObjAddr: 0x551C, symBinAddr: 0x100008E74, symSize: 0xB4 }
  - { offsetInCU: 0x1B576, offset: 0x1B576, size: 0x8, addend: 0x0, symName: __ZNSt3__16vectorI7AddressNS_9allocatorIS1_EEE5clearB7v160006Ev, symObjAddr: 0x55D0, symBinAddr: 0x100008F28, symSize: 0x54 }
  - { offsetInCU: 0x1B5AB, offset: 0x1B5AB, size: 0x8, addend: 0x0, symName: __ZNSt3__112basic_stringIcNS_11char_traitsIcEENS_9allocatorIcEEEC2B7v160006IDnEEPKc, symObjAddr: 0x56A4, symBinAddr: 0x100008FFC, symSize: 0x60 }
  - { offsetInCU: 0x1B5E9, offset: 0x1B5E9, size: 0x8, addend: 0x0, symName: __ZNSt3__111char_traitsIcE6lengthEPKc, symObjAddr: 0x5704, symBinAddr: 0x10000905C, symSize: 0x34 }
  - { offsetInCU: 0x1B60C, offset: 0x1B60C, size: 0x8, addend: 0x0, symName: __ZNSt3__19basic_iosIcNS_11char_traitsIcEEEC2B7v160006Ev, symObjAddr: 0x575C, symBinAddr: 0x1000090B4, symSize: 0x44 }
  - { offsetInCU: 0x1B636, offset: 0x1B636, size: 0x8, addend: 0x0, symName: __ZNSt3__113basic_ostreamIcNS_11char_traitsIcEEEC2B7v160006EPNS_15basic_streambufIcS2_EE, symObjAddr: 0x57A0, symBinAddr: 0x1000090F8, symSize: 0x60 }
  - { offsetInCU: 0x1B67B, offset: 0x1B67B, size: 0x8, addend: 0x0, symName: __ZNSt3__113basic_filebufIcNS_11char_traitsIcEEE4openERKNS_12basic_stringIcS2_NS_9allocatorIcEEEEj, symObjAddr: 0x5800, symBinAddr: 0x100009158, symSize: 0x44 }
  - { offsetInCU: 0x1B6BF, offset: 0x1B6BF, size: 0x8, addend: 0x0, symName: __ZNSt3__19basic_iosIcNS_11char_traitsIcEEE8setstateB7v160006Ej, symObjAddr: 0x5844, symBinAddr: 0x10000919C, symSize: 0x2C }
  - { offsetInCU: 0x1B6F4, offset: 0x1B6F4, size: 0x8, addend: 0x0, symName: __ZNSt3__18ios_baseC2B7v160006Ev, symObjAddr: 0x5870, symBinAddr: 0x1000091C8, symSize: 0x24 }
  - { offsetInCU: 0x1B71E, offset: 0x1B71E, size: 0x8, addend: 0x0, symName: __ZNSt3__19basic_iosIcNS_11char_traitsIcEEE4initB7v160006EPNS_15basic_streambufIcS2_EE, symObjAddr: 0x5894, symBinAddr: 0x1000091EC, symSize: 0x44 }
  - { offsetInCU: 0x1B755, offset: 0x1B755, size: 0x8, addend: 0x0, symName: __ZNSt3__111char_traitsIcE3eofEv, symObjAddr: 0x58D8, symBinAddr: 0x100009230, symSize: 0x8 }
  - { offsetInCU: 0x1B769, offset: 0x1B769, size: 0x8, addend: 0x0, symName: __ZNKSt3__112basic_stringIcNS_11char_traitsIcEENS_9allocatorIcEEE5c_strB7v160006Ev, symObjAddr: 0x58E0, symBinAddr: 0x100009238, symSize: 0x24 }
  - { offsetInCU: 0x1B78F, offset: 0x1B78F, size: 0x8, addend: 0x0, symName: __ZNKSt3__112basic_stringIcNS_11char_traitsIcEENS_9allocatorIcEEE4dataB7v160006Ev, symObjAddr: 0x5904, symBinAddr: 0x10000925C, symSize: 0x28 }
  - { offsetInCU: 0x1B7B5, offset: 0x1B7B5, size: 0x8, addend: 0x0, symName: __ZNKSt3__112basic_stringIcNS_11char_traitsIcEENS_9allocatorIcEEE13__get_pointerB7v160006Ev, symObjAddr: 0x5940, symBinAddr: 0x100009298, symSize: 0x54 }
  - { offsetInCU: 0x1B7DB, offset: 0x1B7DB, size: 0x8, addend: 0x0, symName: __ZNKSt3__112basic_stringIcNS_11char_traitsIcEENS_9allocatorIcEEE9__is_longB7v160006Ev, symObjAddr: 0x5994, symBinAddr: 0x1000092EC, symSize: 0x38 }
  - { offsetInCU: 0x1B801, offset: 0x1B801, size: 0x8, addend: 0x0, symName: __ZNKSt3__112basic_stringIcNS_11char_traitsIcEENS_9allocatorIcEEE18__get_long_pointerB7v160006Ev, symObjAddr: 0x59CC, symBinAddr: 0x100009324, symSize: 0x28 }
  - { offsetInCU: 0x1B827, offset: 0x1B827, size: 0x8, addend: 0x0, symName: __ZNKSt3__112basic_stringIcNS_11char_traitsIcEENS_9allocatorIcEEE19__get_short_pointerB7v160006Ev, symObjAddr: 0x59F4, symBinAddr: 0x10000934C, symSize: 0x28 }
  - { offsetInCU: 0x1B84D, offset: 0x1B84D, size: 0x8, addend: 0x0, symName: __ZNKSt3__117__compressed_pairINS_12basic_stringIcNS_11char_traitsIcEENS_9allocatorIcEEE5__repES5_E5firstB7v160006Ev, symObjAddr: 0x5A1C, symBinAddr: 0x100009374, symSize: 0x24 }
  - { offsetInCU: 0x1B873, offset: 0x1B873, size: 0x8, addend: 0x0, symName: __ZNKSt3__122__compressed_pair_elemINS_12basic_stringIcNS_11char_traitsIcEENS_9allocatorIcEEE5__repELi0ELb0EE5__getB7v160006Ev, symObjAddr: 0x5A40, symBinAddr: 0x100009398, symSize: 0x14 }
  - { offsetInCU: 0x1B899, offset: 0x1B899, size: 0x8, addend: 0x0, symName: __ZNSt3__114pointer_traitsIPKcE10pointer_toB7v160006ERS1_, symObjAddr: 0x5A54, symBinAddr: 0x1000093AC, symSize: 0x14 }
  - { offsetInCU: 0x1B8BC, offset: 0x1B8BC, size: 0x8, addend: 0x0, symName: __ZNSt3__18ios_base8setstateB7v160006Ej, symObjAddr: 0x5A68, symBinAddr: 0x1000093C0, symSize: 0x34 }
  - { offsetInCU: 0x1B8F3, offset: 0x1B8F3, size: 0x8, addend: 0x0, symName: __ZNKSt3__113basic_filebufIcNS_11char_traitsIcEEE7is_openEv, symObjAddr: 0x5A9C, symBinAddr: 0x1000093F4, symSize: 0x24 }
  - { offsetInCU: 0x1B939, offset: 0x1B939, size: 0x8, addend: 0x0, symName: __ZNKSt3__113basic_ostreamIcNS_11char_traitsIcEEE6sentrycvbB7v160006Ev, symObjAddr: 0x5CAC, symBinAddr: 0x100009604, symSize: 0x1C }
  - { offsetInCU: 0x1B95F, offset: 0x1B95F, size: 0x8, addend: 0x0, symName: __ZNSt3__119ostreambuf_iteratorIcNS_11char_traitsIcEEEC1B7v160006ERNS_13basic_ostreamIcS2_EE, symObjAddr: 0x5F08, symBinAddr: 0x100009860, symSize: 0x34 }
  - { offsetInCU: 0x1B997, offset: 0x1B997, size: 0x8, addend: 0x0, symName: __ZNKSt3__18ios_base5flagsB7v160006Ev, symObjAddr: 0x5F3C, symBinAddr: 0x100009894, symSize: 0x18 }
  - { offsetInCU: 0x1B9BF, offset: 0x1B9BF, size: 0x8, addend: 0x0, symName: __ZNKSt3__19basic_iosIcNS_11char_traitsIcEEE4fillB7v160006Ev, symObjAddr: 0x5F54, symBinAddr: 0x1000098AC, symSize: 0x64 }
  - { offsetInCU: 0x1B9E7, offset: 0x1B9E7, size: 0x8, addend: 0x0, symName: __ZNKSt3__119ostreambuf_iteratorIcNS_11char_traitsIcEEE6failedB7v160006Ev, symObjAddr: 0x5FB8, symBinAddr: 0x100009910, symSize: 0x24 }
  - { offsetInCU: 0x1BA0D, offset: 0x1BA0D, size: 0x8, addend: 0x0, symName: __ZNKSt3__18ios_base5widthB7v160006Ev, symObjAddr: 0x5FDC, symBinAddr: 0x100009934, symSize: 0x18 }
  - { offsetInCU: 0x1BA35, offset: 0x1BA35, size: 0x8, addend: 0x0, symName: __ZNSt3__115basic_streambufIcNS_11char_traitsIcEEE5sputnB7v160006EPKcl, symObjAddr: 0x5FF4, symBinAddr: 0x10000994C, symSize: 0x3C }
  - { offsetInCU: 0x1BA77, offset: 0x1BA77, size: 0x8, addend: 0x0, symName: __ZNSt3__112basic_stringIcNS_11char_traitsIcEENS_9allocatorIcEEEC1B7v160006Emc, symObjAddr: 0x6030, symBinAddr: 0x100009988, symSize: 0x3C }
  - { offsetInCU: 0x1BABF, offset: 0x1BABF, size: 0x8, addend: 0x0, symName: __ZNSt3__18ios_base5widthB7v160006El, symObjAddr: 0x606C, symBinAddr: 0x1000099C4, symSize: 0x2C }
  - { offsetInCU: 0x1BB05, offset: 0x1BB05, size: 0x8, addend: 0x0, symName: __ZNSt3__112basic_stringIcNS_11char_traitsIcEENS_9allocatorIcEEEC2B7v160006Emc, symObjAddr: 0x6098, symBinAddr: 0x1000099F0, symSize: 0x54 }
  - { offsetInCU: 0x1BB4D, offset: 0x1BB4D, size: 0x8, addend: 0x0, symName: __ZNSt3__119ostreambuf_iteratorIcNS_11char_traitsIcEEEC2B7v160006ERNS_13basic_ostreamIcS2_EE, symObjAddr: 0x60EC, symBinAddr: 0x100009A44, symSize: 0x54 }
  - { offsetInCU: 0x1BB85, offset: 0x1BB85, size: 0x8, addend: 0x0, symName: __ZNSt3__111char_traitsIcE11eq_int_typeEii, symObjAddr: 0x6140, symBinAddr: 0x100009A98, symSize: 0x28 }
  - { offsetInCU: 0x1BBB6, offset: 0x1BBB6, size: 0x8, addend: 0x0, symName: __ZNKSt3__19basic_iosIcNS_11char_traitsIcEEE5widenB7v160006Ec, symObjAddr: 0x6168, symBinAddr: 0x100009AC0, symSize: 0x84 }
  - { offsetInCU: 0x1BC24, offset: 0x1BC24, size: 0x8, addend: 0x0, symName: __ZNKSt3__15ctypeIcE5widenB7v160006Ec, symObjAddr: 0x6218, symBinAddr: 0x100009B70, symSize: 0x38 }
  - { offsetInCU: 0x1BC59, offset: 0x1BC59, size: 0x8, addend: 0x0, symName: __ZNKSt3__112basic_stringIcNS_11char_traitsIcEENS_9allocatorIcEEE4sizeB7v160006Ev, symObjAddr: 0x6250, symBinAddr: 0x100009BA8, symSize: 0x54 }
  - { offsetInCU: 0x1BC7F, offset: 0x1BC7F, size: 0x8, addend: 0x0, symName: __ZNKSt3__112basic_stringIcNS_11char_traitsIcEENS_9allocatorIcEEE15__get_long_sizeB7v160006Ev, symObjAddr: 0x62A4, symBinAddr: 0x100009BFC, symSize: 0x28 }
  - { offsetInCU: 0x1BCA5, offset: 0x1BCA5, size: 0x8, addend: 0x0, symName: __ZNKSt3__112basic_stringIcNS_11char_traitsIcEENS_9allocatorIcEEE16__get_short_sizeB7v160006Ev, symObjAddr: 0x62CC, symBinAddr: 0x100009C24, symSize: 0x34 }
  - { offsetInCU: 0x1BCCB, offset: 0x1BCCB, size: 0x8, addend: 0x0, symName: __ZNKSt3__18ios_base5rdbufB7v160006Ev, symObjAddr: 0x6300, symBinAddr: 0x100009C58, symSize: 0x18 }
  - { offsetInCU: 0x1BCF1, offset: 0x1BCF1, size: 0x8, addend: 0x0, symName: __ZNSt3__18ios_base5rdbufB7v160006EPv, symObjAddr: 0x6318, symBinAddr: 0x100009C70, symSize: 0x34 }
  - { offsetInCU: 0x1BD26, offset: 0x1BD26, size: 0x8, addend: 0x0, symName: __ZNSt3__16vectorI6RecordNS_9allocatorIS1_EEEC2B7v160006Ev, symObjAddr: 0x634C, symBinAddr: 0x100009CA4, symSize: 0x58 }
  - { offsetInCU: 0x1BD50, offset: 0x1BD50, size: 0x8, addend: 0x0, symName: __ZNSt3__117__compressed_pairIP6RecordNS_9allocatorIS1_EEEC1B7v160006IDnNS_18__default_init_tagEEEOT_OT0_, symObjAddr: 0x63A4, symBinAddr: 0x100009CFC, symSize: 0x3C }
  - { offsetInCU: 0x1BDA8, offset: 0x1BDA8, size: 0x8, addend: 0x0, symName: __ZNSt3__117__compressed_pairIP6RecordNS_9allocatorIS1_EEEC2B7v160006IDnNS_18__default_init_tagEEEOT_OT0_, symObjAddr: 0x63F0, symBinAddr: 0x100009D48, symSize: 0x40 }
  - { offsetInCU: 0x1BE00, offset: 0x1BE00, size: 0x8, addend: 0x0, symName: __ZNSt3__122__compressed_pair_elemIP6RecordLi0ELb0EEC2B7v160006IDnvEEOT_, symObjAddr: 0x6430, symBinAddr: 0x100009D88, symSize: 0x1C }
  - { offsetInCU: 0x1BE42, offset: 0x1BE42, size: 0x8, addend: 0x0, symName: __ZNSt3__122__compressed_pair_elemINS_9allocatorI6RecordEELi1ELb1EEC2B7v160006ENS_18__default_init_tagE, symObjAddr: 0x644C, symBinAddr: 0x100009DA4, symSize: 0x2C }
  - { offsetInCU: 0x1BE76, offset: 0x1BE76, size: 0x8, addend: 0x0, symName: __ZNSt3__19allocatorI6RecordEC2B7v160006Ev, symObjAddr: 0x6478, symBinAddr: 0x100009DD0, symSize: 0x2C }
  - { offsetInCU: 0x1BEA0, offset: 0x1BEA0, size: 0x8, addend: 0x0, symName: __ZNSt3__116__non_trivial_ifILb1ENS_9allocatorI6RecordEEEC2B7v160006Ev, symObjAddr: 0x64A4, symBinAddr: 0x100009DFC, symSize: 0x14 }
  - { offsetInCU: 0x1BECA, offset: 0x1BECA, size: 0x8, addend: 0x0, symName: __ZNSt3__16vectorI6RecordNS_9allocatorIS1_EEED2B7v160006Ev, symObjAddr: 0x64B8, symBinAddr: 0x100009E10, symSize: 0x44 }
  - { offsetInCU: 0x1BEF4, offset: 0x1BEF4, size: 0x8, addend: 0x0, symName: __ZNSt3__16vectorI6RecordNS_9allocatorIS1_EEE16__destroy_vectorC1ERS4_, symObjAddr: 0x64FC, symBinAddr: 0x100009E54, symSize: 0x34 }
  - { offsetInCU: 0x1BF2D, offset: 0x1BF2D, size: 0x8, addend: 0x0, symName: __ZNSt3__16vectorI6RecordNS_9allocatorIS1_EEE16__destroy_vectorclB7v160006Ev, symObjAddr: 0x6530, symBinAddr: 0x100009E88, symSize: 0x9C }
  - { offsetInCU: 0x1BF53, offset: 0x1BF53, size: 0x8, addend: 0x0, symName: __ZNSt3__16vectorI6RecordNS_9allocatorIS1_EEE16__destroy_vectorC2ERS4_, symObjAddr: 0x65CC, symBinAddr: 0x100009F24, symSize: 0x20 }
  - { offsetInCU: 0x1BF8C, offset: 0x1BF8C, size: 0x8, addend: 0x0, symName: __ZNKSt3__16vectorI6RecordNS_9allocatorIS1_EEE17__annotate_deleteB7v160006Ev, symObjAddr: 0x65EC, symBinAddr: 0x100009F44, symSize: 0xD4 }
  - { offsetInCU: 0x1BFB2, offset: 0x1BFB2, size: 0x8, addend: 0x0, symName: __ZNSt3__16vectorI6RecordNS_9allocatorIS1_EEE7__clearB7v160006Ev, symObjAddr: 0x66D0, symBinAddr: 0x10000A028, symSize: 0x28 }
  - { offsetInCU: 0x1BFD8, offset: 0x1BFD8, size: 0x8, addend: 0x0, symName: __ZNSt3__116allocator_traitsINS_9allocatorI6RecordEEE10deallocateB7v160006ERS3_PS2_m, symObjAddr: 0x66F8, symBinAddr: 0x10000A050, symSize: 0x34 }
  - { offsetInCU: 0x1C01A, offset: 0x1C01A, size: 0x8, addend: 0x0, symName: __ZNSt3__16vectorI6RecordNS_9allocatorIS1_EEE7__allocB7v160006Ev, symObjAddr: 0x672C, symBinAddr: 0x10000A084, symSize: 0x28 }
  - { offsetInCU: 0x1C040, offset: 0x1C040, size: 0x8, addend: 0x0, symName: __ZNKSt3__16vectorI6RecordNS_9allocatorIS1_EEE8capacityB7v160006Ev, symObjAddr: 0x6754, symBinAddr: 0x10000A0AC, symSize: 0x40 }
  - { offsetInCU: 0x1C066, offset: 0x1C066, size: 0x8, addend: 0x0, symName: __ZNKSt3__16vectorI6RecordNS_9allocatorIS1_EEE31__annotate_contiguous_containerB7v160006EPKvS6_S6_S6_, symObjAddr: 0x6794, symBinAddr: 0x10000A0EC, symSize: 0x20 }
  - { offsetInCU: 0x1C0B8, offset: 0x1C0B8, size: 0x8, addend: 0x0, symName: __ZNKSt3__16vectorI6RecordNS_9allocatorIS1_EEE4dataB7v160006Ev, symObjAddr: 0x67B4, symBinAddr: 0x10000A10C, symSize: 0x28 }
  - { offsetInCU: 0x1C0DE, offset: 0x1C0DE, size: 0x8, addend: 0x0, symName: __ZNKSt3__16vectorI6RecordNS_9allocatorIS1_EEE4sizeB7v160006Ev, symObjAddr: 0x67DC, symBinAddr: 0x10000A134, symSize: 0x28 }
  - { offsetInCU: 0x1C104, offset: 0x1C104, size: 0x8, addend: 0x0, symName: __ZNSt3__16vectorI6RecordNS_9allocatorIS1_EEE22__base_destruct_at_endB7v160006EPS1_, symObjAddr: 0x6818, symBinAddr: 0x10000A170, symSize: 0x8C }
  - { offsetInCU: 0x1C148, offset: 0x1C148, size: 0x8, addend: 0x0, symName: __ZNSt3__116allocator_traitsINS_9allocatorI6RecordEEE7destroyB7v160006IS2_vEEvRS3_PT_, symObjAddr: 0x68A4, symBinAddr: 0x10000A1FC, symSize: 0x2C }
  - { offsetInCU: 0x1C185, offset: 0x1C185, size: 0x8, addend: 0x0, symName: __ZNSt3__19allocatorI6RecordE7destroyB7v160006EPS1_, symObjAddr: 0x68D0, symBinAddr: 0x10000A228, symSize: 0x14 }
  - { offsetInCU: 0x1C1B9, offset: 0x1C1B9, size: 0x8, addend: 0x0, symName: __ZNSt3__19allocatorI6RecordE10deallocateB7v160006EPS1_m, symObjAddr: 0x68E4, symBinAddr: 0x10000A23C, symSize: 0x44 }
  - { offsetInCU: 0x1C1FB, offset: 0x1C1FB, size: 0x8, addend: 0x0, symName: __ZNSt3__117__compressed_pairIP6RecordNS_9allocatorIS1_EEE6secondB7v160006Ev, symObjAddr: 0x6928, symBinAddr: 0x10000A280, symSize: 0x24 }
  - { offsetInCU: 0x1C221, offset: 0x1C221, size: 0x8, addend: 0x0, symName: __ZNSt3__122__compressed_pair_elemINS_9allocatorI6RecordEELi1ELb1EE5__getB7v160006Ev, symObjAddr: 0x694C, symBinAddr: 0x10000A2A4, symSize: 0x14 }
  - { offsetInCU: 0x1C247, offset: 0x1C247, size: 0x8, addend: 0x0, symName: __ZNKSt3__16vectorI6RecordNS_9allocatorIS1_EEE9__end_capB7v160006Ev, symObjAddr: 0x6960, symBinAddr: 0x10000A2B8, symSize: 0x28 }
  - { offsetInCU: 0x1C26D, offset: 0x1C26D, size: 0x8, addend: 0x0, symName: __ZNKSt3__117__compressed_pairIP6RecordNS_9allocatorIS1_EEE5firstB7v160006Ev, symObjAddr: 0x6988, symBinAddr: 0x10000A2E0, symSize: 0x24 }
  - { offsetInCU: 0x1C293, offset: 0x1C293, size: 0x8, addend: 0x0, symName: __ZNKSt3__122__compressed_pair_elemIP6RecordLi0ELb0EE5__getB7v160006Ev, symObjAddr: 0x69AC, symBinAddr: 0x10000A304, symSize: 0x14 }
  - { offsetInCU: 0x1C2B9, offset: 0x1C2B9, size: 0x8, addend: 0x0, symName: __ZNSt3__13mapIfNS_6vectorI7AddressNS_9allocatorIS2_EEEENS_4lessIfEENS3_INS_4pairIKfS5_EEEEEC2B7v160006Ev, symObjAddr: 0x69C0, symBinAddr: 0x10000A318, symSize: 0x40 }
  - { offsetInCU: 0x1C2E3, offset: 0x1C2E3, size: 0x8, addend: 0x0, symName: __ZNSt3__119__map_value_compareIfNS_12__value_typeIfNS_6vectorI7AddressNS_9allocatorIS3_EEEEEENS_4lessIfEELb1EEC1B7v160006ES9_, symObjAddr: 0x6A00, symBinAddr: 0x10000A358, symSize: 0x2C }
  - { offsetInCU: 0x1C31C, offset: 0x1C31C, size: 0x8, addend: 0x0, symName: __ZNSt3__16__treeINS_12__value_typeIfNS_6vectorI7AddressNS_9allocatorIS3_EEEEEENS_19__map_value_compareIfS7_NS_4lessIfEELb1EEENS4_IS7_EEEC1ERKSB_, symObjAddr: 0x6A2C, symBinAddr: 0x10000A384, symSize: 0x34 }
  - { offsetInCU: 0x1C357, offset: 0x1C357, size: 0x8, addend: 0x0, symName: __ZNSt3__119__map_value_compareIfNS_12__value_typeIfNS_6vectorI7AddressNS_9allocatorIS3_EEEEEENS_4lessIfEELb1EEC2B7v160006ES9_, symObjAddr: 0x6A60, symBinAddr: 0x10000A3B8, symSize: 0x14 }
  - { offsetInCU: 0x1C390, offset: 0x1C390, size: 0x8, addend: 0x0, symName: __ZNSt3__16__treeINS_12__value_typeIfNS_6vectorI7AddressNS_9allocatorIS3_EEEEEENS_19__map_value_compareIfS7_NS_4lessIfEELb1EEENS4_IS7_EEEC2ERKSB_, symObjAddr: 0x6A74, symBinAddr: 0x10000A3CC, symSize: 0x7C }
  - { offsetInCU: 0x1C3CB, offset: 0x1C3CB, size: 0x8, addend: 0x0, symName: __ZNSt3__117__compressed_pairINS_15__tree_end_nodeIPNS_16__tree_node_baseIPvEEEENS_9allocatorINS_11__tree_nodeINS_12__value_typeIfNS_6vectorI7AddressNS7_ISB_EEEEEES3_EEEEEC1B7v160006ILb1EvEEv, symObjAddr: 0x6AF0, symBinAddr: 0x10000A448, symSize: 0x2C }
  - { offsetInCU: 0x1C406, offset: 0x1C406, size: 0x8, addend: 0x0, symName: __ZNSt3__117__compressed_pairImNS_19__map_value_compareIfNS_12__value_typeIfNS_6vectorI7AddressNS_9allocatorIS4_EEEEEENS_4lessIfEELb1EEEEC1B7v160006IiRKSB_EEOT_OT0_, symObjAddr: 0x6B1C, symBinAddr: 0x10000A474, symSize: 0x3C }
  - { offsetInCU: 0x1C45E, offset: 0x1C45E, size: 0x8, addend: 0x0, symName: __ZNSt3__16__treeINS_12__value_typeIfNS_6vectorI7AddressNS_9allocatorIS3_EEEEEENS_19__map_value_compareIfS7_NS_4lessIfEELb1EEENS4_IS7_EEE10__end_nodeB7v160006Ev, symObjAddr: 0x6B58, symBinAddr: 0x10000A4B0, symSize: 0x2C }
  - { offsetInCU: 0x1C484, offset: 0x1C484, size: 0x8, addend: 0x0, symName: __ZNSt3__16__treeINS_12__value_typeIfNS_6vectorI7AddressNS_9allocatorIS3_EEEEEENS_19__map_value_compareIfS7_NS_4lessIfEELb1EEENS4_IS7_EEE12__begin_nodeB7v160006Ev, symObjAddr: 0x6B84, symBinAddr: 0x10000A4DC, symSize: 0x14 }
  - { offsetInCU: 0x1C4AA, offset: 0x1C4AA, size: 0x8, addend: 0x0, symName: __ZNSt3__117__compressed_pairINS_15__tree_end_nodeIPNS_16__tree_node_baseIPvEEEENS_9allocatorINS_11__tree_nodeINS_12__value_typeIfNS_6vectorI7AddressNS7_ISB_EEEEEES3_EEEEEC2B7v160006ILb1EvEEv, symObjAddr: 0x6B98, symBinAddr: 0x10000A4F0, symSize: 0x34 }
  - { offsetInCU: 0x1C4DF, offset: 0x1C4DF, size: 0x8, addend: 0x0, symName: __ZNSt3__122__compressed_pair_elemINS_15__tree_end_nodeIPNS_16__tree_node_baseIPvEEEELi0ELb0EEC2B7v160006ENS_16__value_init_tagE, symObjAddr: 0x6BCC, symBinAddr: 0x10000A524, symSize: 0x2C }
  - { offsetInCU: 0x1C513, offset: 0x1C513, size: 0x8, addend: 0x0, symName: __ZNSt3__122__compressed_pair_elemINS_9allocatorINS_11__tree_nodeINS_12__value_typeIfNS_6vectorI7AddressNS1_IS5_EEEEEEPvEEEELi1ELb1EEC2B7v160006ENS_16__value_init_tagE, symObjAddr: 0x6BF8, symBinAddr: 0x10000A550, symSize: 0x2C }
  - { offsetInCU: 0x1C547, offset: 0x1C547, size: 0x8, addend: 0x0, symName: __ZNSt3__115__tree_end_nodeIPNS_16__tree_node_baseIPvEEEC1B7v160006Ev, symObjAddr: 0x6C24, symBinAddr: 0x10000A57C, symSize: 0x2C }
  - { offsetInCU: 0x1C571, offset: 0x1C571, size: 0x8, addend: 0x0, symName: __ZNSt3__115__tree_end_nodeIPNS_16__tree_node_baseIPvEEEC2B7v160006Ev, symObjAddr: 0x6C50, symBinAddr: 0x10000A5A8, symSize: 0x18 }
  - { offsetInCU: 0x1C59B, offset: 0x1C59B, size: 0x8, addend: 0x0, symName: __ZNSt3__19allocatorINS_11__tree_nodeINS_12__value_typeIfNS_6vectorI7AddressNS0_IS4_EEEEEEPvEEEC2B7v160006Ev, symObjAddr: 0x6C68, symBinAddr: 0x10000A5C0, symSize: 0x2C }
  - { offsetInCU: 0x1C5C5, offset: 0x1C5C5, size: 0x8, addend: 0x0, symName: __ZNSt3__116__non_trivial_ifILb1ENS_9allocatorINS_11__tree_nodeINS_12__value_typeIfNS_6vectorI7AddressNS1_IS5_EEEEEEPvEEEEEC2B7v160006Ev, symObjAddr: 0x6C94, symBinAddr: 0x10000A5EC, symSize: 0x14 }
  - { offsetInCU: 0x1C5EF, offset: 0x1C5EF, size: 0x8, addend: 0x0, symName: __ZNSt3__117__compressed_pairImNS_19__map_value_compareIfNS_12__value_typeIfNS_6vectorI7AddressNS_9allocatorIS4_EEEEEENS_4lessIfEELb1EEEEC2B7v160006IiRKSB_EEOT_OT0_, symObjAddr: 0x6CA8, symBinAddr: 0x10000A600, symSize: 0x44 }
  - { offsetInCU: 0x1C647, offset: 0x1C647, size: 0x8, addend: 0x0, symName: __ZNSt3__122__compressed_pair_elemImLi0ELb0EEC2B7v160006IivEEOT_, symObjAddr: 0x6CEC, symBinAddr: 0x10000A644, symSize: 0x24 }
  - { offsetInCU: 0x1C689, offset: 0x1C689, size: 0x8, addend: 0x0, symName: __ZNSt3__122__compressed_pair_elemINS_19__map_value_compareIfNS_12__value_typeIfNS_6vectorI7AddressNS_9allocatorIS4_EEEEEENS_4lessIfEELb1EEELi1ELb1EEC2B7v160006IRKSB_vEEOT_, symObjAddr: 0x6D10, symBinAddr: 0x10000A668, symSize: 0x18 }
  - { offsetInCU: 0x1C6CB, offset: 0x1C6CB, size: 0x8, addend: 0x0, symName: __ZNSt3__114pointer_traitsIPNS_15__tree_end_nodeIPNS_16__tree_node_baseIPvEEEEE10pointer_toB7v160006ERS6_, symObjAddr: 0x6D28, symBinAddr: 0x10000A680, symSize: 0x14 }
  - { offsetInCU: 0x1C6EE, offset: 0x1C6EE, size: 0x8, addend: 0x0, symName: __ZNSt3__117__compressed_pairINS_15__tree_end_nodeIPNS_16__tree_node_baseIPvEEEENS_9allocatorINS_11__tree_nodeINS_12__value_typeIfNS_6vectorI7AddressNS7_ISB_EEEEEES3_EEEEE5firstB7v160006Ev, symObjAddr: 0x6D3C, symBinAddr: 0x10000A694, symSize: 0x24 }
  - { offsetInCU: 0x1C714, offset: 0x1C714, size: 0x8, addend: 0x0, symName: __ZNSt3__122__compressed_pair_elemINS_15__tree_end_nodeIPNS_16__tree_node_baseIPvEEEELi0ELb0EE5__getB7v160006Ev, symObjAddr: 0x6D60, symBinAddr: 0x10000A6B8, symSize: 0x14 }
  - { offsetInCU: 0x1C73A, offset: 0x1C73A, size: 0x8, addend: 0x0, symName: __ZNSt3__13mapIfNS_6vectorI7AddressNS_9allocatorIS2_EEEENS_4lessIfEENS3_INS_4pairIKfS5_EEEEED2B7v160006Ev, symObjAddr: 0x6D74, symBinAddr: 0x10000A6CC, symSize: 0x2C }
  - { offsetInCU: 0x1C764, offset: 0x1C764, size: 0x8, addend: 0x0, symName: __ZNSt3__16__treeINS_12__value_typeIfNS_6vectorI7AddressNS_9allocatorIS3_EEEEEENS_19__map_value_compareIfS7_NS_4lessIfEELb1EEENS4_IS7_EEED1Ev, symObjAddr: 0x6DA0, symBinAddr: 0x10000A6F8, symSize: 0x2C }
  - { offsetInCU: 0x1C790, offset: 0x1C790, size: 0x8, addend: 0x0, symName: __ZNSt3__16__treeINS_12__value_typeIfNS_6vectorI7AddressNS_9allocatorIS3_EEEEEENS_19__map_value_compareIfS7_NS_4lessIfEELb1EEENS4_IS7_EEED2Ev, symObjAddr: 0x6DCC, symBinAddr: 0x10000A724, symSize: 0x38 }
  - { offsetInCU: 0x1C7BC, offset: 0x1C7BC, size: 0x8, addend: 0x0, symName: __ZNSt3__16__treeINS_12__value_typeIfNS_6vectorI7AddressNS_9allocatorIS3_EEEEEENS_19__map_value_compareIfS7_NS_4lessIfEELb1EEENS4_IS7_EEE7destroyEPNS_11__tree_nodeIS7_PvEE, symObjAddr: 0x6E04, symBinAddr: 0x10000A75C, symSize: 0xAC }
  - { offsetInCU: 0x1C808, offset: 0x1C808, size: 0x8, addend: 0x0, symName: __ZNKSt3__16__treeINS_12__value_typeIfNS_6vectorI7AddressNS_9allocatorIS3_EEEEEENS_19__map_value_compareIfS7_NS_4lessIfEELb1EEENS4_IS7_EEE6__rootB7v160006Ev, symObjAddr: 0x6EB0, symBinAddr: 0x10000A808, symSize: 0x28 }
  - { offsetInCU: 0x1C82E, offset: 0x1C82E, size: 0x8, addend: 0x0, symName: __ZNSt3__16__treeINS_12__value_typeIfNS_6vectorI7AddressNS_9allocatorIS3_EEEEEENS_19__map_value_compareIfS7_NS_4lessIfEELb1EEENS4_IS7_EEE12__node_allocB7v160006Ev, symObjAddr: 0x6ED8, symBinAddr: 0x10000A830, symSize: 0x28 }
  - { offsetInCU: 0x1C854, offset: 0x1C854, size: 0x8, addend: 0x0, symName: __ZNSt3__116allocator_traitsINS_9allocatorINS_11__tree_nodeINS_12__value_typeIfNS_6vectorI7AddressNS1_IS5_EEEEEEPvEEEEE7destroyB7v160006INS_4pairIKfS7_EEvvEEvRSB_PT_, symObjAddr: 0x6F00, symBinAddr: 0x10000A858, symSize: 0x28 }
  - { offsetInCU: 0x1C88E, offset: 0x1C88E, size: 0x8, addend: 0x0, symName: __ZNSt3__122__tree_key_value_typesINS_12__value_typeIfNS_6vectorI7AddressNS_9allocatorIS3_EEEEEEE9__get_ptrB7v160006ERS7_, symObjAddr: 0x6F28, symBinAddr: 0x10000A880, symSize: 0x24 }
  - { offsetInCU: 0x1C8B2, offset: 0x1C8B2, size: 0x8, addend: 0x0, symName: __ZNSt3__116allocator_traitsINS_9allocatorINS_11__tree_nodeINS_12__value_typeIfNS_6vectorI7AddressNS1_IS5_EEEEEEPvEEEEE10deallocateB7v160006ERSB_PSA_m, symObjAddr: 0x6F4C, symBinAddr: 0x10000A8A4, symSize: 0x34 }
  - { offsetInCU: 0x1C8F4, offset: 0x1C8F4, size: 0x8, addend: 0x0, symName: __ZNSt3__117__compressed_pairINS_15__tree_end_nodeIPNS_16__tree_node_baseIPvEEEENS_9allocatorINS_11__tree_nodeINS_12__value_typeIfNS_6vectorI7AddressNS7_ISB_EEEEEES3_EEEEE6secondB7v160006Ev, symObjAddr: 0x6F80, symBinAddr: 0x10000A8D8, symSize: 0x24 }
  - { offsetInCU: 0x1C91A, offset: 0x1C91A, size: 0x8, addend: 0x0, symName: __ZNSt3__122__compressed_pair_elemINS_9allocatorINS_11__tree_nodeINS_12__value_typeIfNS_6vectorI7AddressNS1_IS5_EEEEEEPvEEEELi1ELb1EE5__getB7v160006Ev, symObjAddr: 0x6FA4, symBinAddr: 0x10000A8FC, symSize: 0x14 }
  - { offsetInCU: 0x1C940, offset: 0x1C940, size: 0x8, addend: 0x0, symName: __ZNSt3__14pairIKfNS_6vectorI7AddressNS_9allocatorIS3_EEEEED1Ev, symObjAddr: 0x6FB8, symBinAddr: 0x10000A910, symSize: 0x2C }
  - { offsetInCU: 0x1C96C, offset: 0x1C96C, size: 0x8, addend: 0x0, symName: __ZNSt3__14pairIKfNS_6vectorI7AddressNS_9allocatorIS3_EEEEED2Ev, symObjAddr: 0x6FE4, symBinAddr: 0x10000A93C, symSize: 0x30 }
  - { offsetInCU: 0x1C998, offset: 0x1C998, size: 0x8, addend: 0x0, symName: __ZNSt3__112__value_typeIfNS_6vectorI7AddressNS_9allocatorIS2_EEEEE11__get_valueB7v160006Ev, symObjAddr: 0x7014, symBinAddr: 0x10000A96C, symSize: 0x14 }
  - { offsetInCU: 0x1C9BE, offset: 0x1C9BE, size: 0x8, addend: 0x0, symName: __ZNSt3__19allocatorINS_11__tree_nodeINS_12__value_typeIfNS_6vectorI7AddressNS0_IS4_EEEEEEPvEEE10deallocateB7v160006EPS9_m, symObjAddr: 0x7028, symBinAddr: 0x10000A980, symSize: 0x40 }
  - { offsetInCU: 0x1CA00, offset: 0x1CA00, size: 0x8, addend: 0x0, symName: __ZNKSt3__16__treeINS_12__value_typeIfNS_6vectorI7AddressNS_9allocatorIS3_EEEEEENS_19__map_value_compareIfS7_NS_4lessIfEELb1EEENS4_IS7_EEE10__end_nodeB7v160006Ev, symObjAddr: 0x7068, symBinAddr: 0x10000A9C0, symSize: 0x2C }
  - { offsetInCU: 0x1CA26, offset: 0x1CA26, size: 0x8, addend: 0x0, symName: __ZNKSt3__117__compressed_pairINS_15__tree_end_nodeIPNS_16__tree_node_baseIPvEEEENS_9allocatorINS_11__tree_nodeINS_12__value_typeIfNS_6vectorI7AddressNS7_ISB_EEEEEES3_EEEEE5firstB7v160006Ev, symObjAddr: 0x7094, symBinAddr: 0x10000A9EC, symSize: 0x24 }
  - { offsetInCU: 0x1CA4C, offset: 0x1CA4C, size: 0x8, addend: 0x0, symName: __ZNKSt3__122__compressed_pair_elemINS_15__tree_end_nodeIPNS_16__tree_node_baseIPvEEEELi0ELb0EE5__getB7v160006Ev, symObjAddr: 0x70B8, symBinAddr: 0x10000AA10, symSize: 0x14 }
  - { offsetInCU: 0x1CA72, offset: 0x1CA72, size: 0x8, addend: 0x0, symName: __ZNSt3__113basic_istreamIcNS_11char_traitsIcEEEC2B7v160006EPNS_15basic_streambufIcS2_EE, symObjAddr: 0x70CC, symBinAddr: 0x10000AA24, symSize: 0x64 }
  - { offsetInCU: 0x1CAB7, offset: 0x1CAB7, size: 0x8, addend: 0x0, symName: __ZNKSt3__19basic_iosIcNS_11char_traitsIcEEE4failB7v160006Ev, symObjAddr: 0x7130, symBinAddr: 0x10000AA88, symSize: 0x28 }
  - { offsetInCU: 0x1CADD, offset: 0x1CADD, size: 0x8, addend: 0x0, symName: __ZNKSt3__18ios_base4failB7v160006Ev, symObjAddr: 0x7158, symBinAddr: 0x10000AAB0, symSize: 0x28 }
  - { offsetInCU: 0x1CB05, offset: 0x1CB05, size: 0x8, addend: 0x0, symName: __ZNSt3__115basic_stringbufIcNS_11char_traitsIcEENS_9allocatorIcEEEC1B7v160006ERKNS_12basic_stringIcS2_S4_EEj, symObjAddr: 0x7180, symBinAddr: 0x10000AAD8, symSize: 0x3C }
  - { offsetInCU: 0x1CB4B, offset: 0x1CB4B, size: 0x8, addend: 0x0, symName: __ZNSt3__115basic_stringbufIcNS_11char_traitsIcEENS_9allocatorIcEEEC2B7v160006ERKNS_12basic_stringIcS2_S4_EEj, symObjAddr: 0x71BC, symBinAddr: 0x10000AB14, symSize: 0xB4 }
  - { offsetInCU: 0x1CB91, offset: 0x1CB91, size: 0x8, addend: 0x0, symName: __ZNKSt3__112basic_stringIcNS_11char_traitsIcEENS_9allocatorIcEEE13get_allocatorB7v160006Ev, symObjAddr: 0x7270, symBinAddr: 0x10000ABC8, symSize: 0x24 }
  - { offsetInCU: 0x1CBB7, offset: 0x1CBB7, size: 0x8, addend: 0x0, symName: __ZNSt3__112basic_stringIcNS_11char_traitsIcEENS_9allocatorIcEEEC1B7v160006ERKS4_, symObjAddr: 0x7294, symBinAddr: 0x10000ABEC, symSize: 0x34 }
  - { offsetInCU: 0x1CBF0, offset: 0x1CBF0, size: 0x8, addend: 0x0, symName: __ZNKSt3__112basic_stringIcNS_11char_traitsIcEENS_9allocatorIcEEE7__allocB7v160006Ev, symObjAddr: 0x72C8, symBinAddr: 0x10000AC20, symSize: 0x24 }
  - { offsetInCU: 0x1CC16, offset: 0x1CC16, size: 0x8, addend: 0x0, symName: __ZNKSt3__117__compressed_pairINS_12basic_stringIcNS_11char_traitsIcEENS_9allocatorIcEEE5__repES5_E6secondB7v160006Ev, symObjAddr: 0x72EC, symBinAddr: 0x10000AC44, symSize: 0x24 }
  - { offsetInCU: 0x1CC3C, offset: 0x1CC3C, size: 0x8, addend: 0x0, symName: __ZNKSt3__122__compressed_pair_elemINS_9allocatorIcEELi1ELb1EE5__getB7v160006Ev, symObjAddr: 0x7310, symBinAddr: 0x10000AC68, symSize: 0x14 }
  - { offsetInCU: 0x1CC62, offset: 0x1CC62, size: 0x8, addend: 0x0, symName: __ZNSt3__112basic_stringIcNS_11char_traitsIcEENS_9allocatorIcEEEC2B7v160006ERKS4_, symObjAddr: 0x7324, symBinAddr: 0x10000AC7C, symSize: 0x50 }
  - { offsetInCU: 0x1CC9B, offset: 0x1CC9B, size: 0x8, addend: 0x0, symName: __ZNSt3__117__compressed_pairINS_12basic_stringIcNS_11char_traitsIcEENS_9allocatorIcEEE5__repES5_EC1B7v160006INS_18__default_init_tagERKS5_EEOT_OT0_, symObjAddr: 0x7374, symBinAddr: 0x10000ACCC, symSize: 0x3C }
  - { offsetInCU: 0x1CCF3, offset: 0x1CCF3, size: 0x8, addend: 0x0, symName: __ZNSt3__117__compressed_pairINS_12basic_stringIcNS_11char_traitsIcEENS_9allocatorIcEEE5__repES5_EC2B7v160006INS_18__default_init_tagERKS5_EEOT_OT0_, symObjAddr: 0x73B0, symBinAddr: 0x10000AD08, symSize: 0x40 }
  - { offsetInCU: 0x1CD4B, offset: 0x1CD4B, size: 0x8, addend: 0x0, symName: __ZNSt3__122__compressed_pair_elemINS_9allocatorIcEELi1ELb1EEC2B7v160006IRKS2_vEEOT_, symObjAddr: 0x73F0, symBinAddr: 0x10000AD48, symSize: 0x18 }
  - { offsetInCU: 0x1CD8D, offset: 0x1CD8D, size: 0x8, addend: 0x0, symName: __ZNSt3__16vectorINS_12basic_stringIcNS_11char_traitsIcEENS_9allocatorIcEEEENS4_IS6_EEEC2B7v160006Ev, symObjAddr: 0x7408, symBinAddr: 0x10000AD60, symSize: 0x58 }
  - { offsetInCU: 0x1CDB7, offset: 0x1CDB7, size: 0x8, addend: 0x0, symName: __ZNSt3__117__compressed_pairIPNS_12basic_stringIcNS_11char_traitsIcEENS_9allocatorIcEEEENS4_IS6_EEEC1B7v160006IDnNS_18__default_init_tagEEEOT_OT0_, symObjAddr: 0x7460, symBinAddr: 0x10000ADB8, symSize: 0x3C }
  - { offsetInCU: 0x1CE0F, offset: 0x1CE0F, size: 0x8, addend: 0x0, symName: __ZNSt3__117__compressed_pairIPNS_12basic_stringIcNS_11char_traitsIcEENS_9allocatorIcEEEENS4_IS6_EEEC2B7v160006IDnNS_18__default_init_tagEEEOT_OT0_, symObjAddr: 0x74AC, symBinAddr: 0x10000AE04, symSize: 0x40 }
  - { offsetInCU: 0x1CE67, offset: 0x1CE67, size: 0x8, addend: 0x0, symName: __ZNSt3__122__compressed_pair_elemIPNS_12basic_stringIcNS_11char_traitsIcEENS_9allocatorIcEEEELi0ELb0EEC2B7v160006IDnvEEOT_, symObjAddr: 0x74EC, symBinAddr: 0x10000AE44, symSize: 0x1C }
  - { offsetInCU: 0x1CEA9, offset: 0x1CEA9, size: 0x8, addend: 0x0, symName: __ZNSt3__122__compressed_pair_elemINS_9allocatorINS_12basic_stringIcNS_11char_traitsIcEENS1_IcEEEEEELi1ELb1EEC2B7v160006ENS_18__default_init_tagE, symObjAddr: 0x7508, symBinAddr: 0x10000AE60, symSize: 0x2C }
  - { offsetInCU: 0x1CEDD, offset: 0x1CEDD, size: 0x8, addend: 0x0, symName: __ZNSt3__19allocatorINS_12basic_stringIcNS_11char_traitsIcEENS0_IcEEEEEC2B7v160006Ev, symObjAddr: 0x7534, symBinAddr: 0x10000AE8C, symSize: 0x2C }
  - { offsetInCU: 0x1CF07, offset: 0x1CF07, size: 0x8, addend: 0x0, symName: __ZNSt3__116__non_trivial_ifILb1ENS_9allocatorINS_12basic_stringIcNS_11char_traitsIcEENS1_IcEEEEEEEC2B7v160006Ev, symObjAddr: 0x7560, symBinAddr: 0x10000AEB8, symSize: 0x14 }
  - { offsetInCU: 0x1CF31, offset: 0x1CF31, size: 0x8, addend: 0x0, symName: __ZNSt3__16vectorINS_12basic_stringIcNS_11char_traitsIcEENS_9allocatorIcEEEENS4_IS6_EEED2B7v160006Ev, symObjAddr: 0x7574, symBinAddr: 0x10000AECC, symSize: 0x44 }
  - { offsetInCU: 0x1CF5B, offset: 0x1CF5B, size: 0x8, addend: 0x0, symName: __ZNSt3__16vectorINS_12basic_stringIcNS_11char_traitsIcEENS_9allocatorIcEEEENS4_IS6_EEE16__destroy_vectorC1ERS8_, symObjAddr: 0x75B8, symBinAddr: 0x10000AF10, symSize: 0x34 }
  - { offsetInCU: 0x1CF94, offset: 0x1CF94, size: 0x8, addend: 0x0, symName: __ZNSt3__16vectorINS_12basic_stringIcNS_11char_traitsIcEENS_9allocatorIcEEEENS4_IS6_EEE16__destroy_vectorclB7v160006Ev, symObjAddr: 0x75EC, symBinAddr: 0x10000AF44, symSize: 0x9C }
  - { offsetInCU: 0x1CFBA, offset: 0x1CFBA, size: 0x8, addend: 0x0, symName: __ZNSt3__16vectorINS_12basic_stringIcNS_11char_traitsIcEENS_9allocatorIcEEEENS4_IS6_EEE16__destroy_vectorC2ERS8_, symObjAddr: 0x7688, symBinAddr: 0x10000AFE0, symSize: 0x20 }
  - { offsetInCU: 0x1CFF3, offset: 0x1CFF3, size: 0x8, addend: 0x0, symName: __ZNKSt3__16vectorINS_12basic_stringIcNS_11char_traitsIcEENS_9allocatorIcEEEENS4_IS6_EEE17__annotate_deleteB7v160006Ev, symObjAddr: 0x76A8, symBinAddr: 0x10000B000, symSize: 0xD4 }
  - { offsetInCU: 0x1D019, offset: 0x1D019, size: 0x8, addend: 0x0, symName: __ZNSt3__16vectorINS_12basic_stringIcNS_11char_traitsIcEENS_9allocatorIcEEEENS4_IS6_EEE7__clearB7v160006Ev, symObjAddr: 0x778C, symBinAddr: 0x10000B0E4, symSize: 0x28 }
  - { offsetInCU: 0x1D03F, offset: 0x1D03F, size: 0x8, addend: 0x0, symName: __ZNSt3__116allocator_traitsINS_9allocatorINS_12basic_stringIcNS_11char_traitsIcEENS1_IcEEEEEEE10deallocateB7v160006ERS7_PS6_m, symObjAddr: 0x77B4, symBinAddr: 0x10000B10C, symSize: 0x34 }
  - { offsetInCU: 0x1D081, offset: 0x1D081, size: 0x8, addend: 0x0, symName: __ZNSt3__16vectorINS_12basic_stringIcNS_11char_traitsIcEENS_9allocatorIcEEEENS4_IS6_EEE7__allocB7v160006Ev, symObjAddr: 0x77E8, symBinAddr: 0x10000B140, symSize: 0x28 }
  - { offsetInCU: 0x1D0A7, offset: 0x1D0A7, size: 0x8, addend: 0x0, symName: __ZNKSt3__16vectorINS_12basic_stringIcNS_11char_traitsIcEENS_9allocatorIcEEEENS4_IS6_EEE8capacityB7v160006Ev, symObjAddr: 0x7810, symBinAddr: 0x10000B168, symSize: 0x40 }
  - { offsetInCU: 0x1D0CD, offset: 0x1D0CD, size: 0x8, addend: 0x0, symName: __ZNKSt3__16vectorINS_12basic_stringIcNS_11char_traitsIcEENS_9allocatorIcEEEENS4_IS6_EEE31__annotate_contiguous_containerB7v160006EPKvSA_SA_SA_, symObjAddr: 0x7850, symBinAddr: 0x10000B1A8, symSize: 0x20 }
  - { offsetInCU: 0x1D11F, offset: 0x1D11F, size: 0x8, addend: 0x0, symName: __ZNKSt3__16vectorINS_12basic_stringIcNS_11char_traitsIcEENS_9allocatorIcEEEENS4_IS6_EEE4dataB7v160006Ev, symObjAddr: 0x7870, symBinAddr: 0x10000B1C8, symSize: 0x28 }
  - { offsetInCU: 0x1D145, offset: 0x1D145, size: 0x8, addend: 0x0, symName: __ZNKSt3__16vectorINS_12basic_stringIcNS_11char_traitsIcEENS_9allocatorIcEEEENS4_IS6_EEE4sizeB7v160006Ev, symObjAddr: 0x7898, symBinAddr: 0x10000B1F0, symSize: 0x28 }
  - { offsetInCU: 0x1D16B, offset: 0x1D16B, size: 0x8, addend: 0x0, symName: __ZNSt3__16vectorINS_12basic_stringIcNS_11char_traitsIcEENS_9allocatorIcEEEENS4_IS6_EEE22__base_destruct_at_endB7v160006EPS6_, symObjAddr: 0x78D4, symBinAddr: 0x10000B22C, symSize: 0x8C }
  - { offsetInCU: 0x1D1AF, offset: 0x1D1AF, size: 0x8, addend: 0x0, symName: __ZNSt3__116allocator_traitsINS_9allocatorINS_12basic_stringIcNS_11char_traitsIcEENS1_IcEEEEEEE7destroyB7v160006IS6_vEEvRS7_PT_, symObjAddr: 0x7960, symBinAddr: 0x10000B2B8, symSize: 0x2C }
  - { offsetInCU: 0x1D1EC, offset: 0x1D1EC, size: 0x8, addend: 0x0, symName: __ZNSt3__19allocatorINS_12basic_stringIcNS_11char_traitsIcEENS0_IcEEEEE7destroyB7v160006EPS5_, symObjAddr: 0x798C, symBinAddr: 0x10000B2E4, symSize: 0x28 }
  - { offsetInCU: 0x1D220, offset: 0x1D220, size: 0x8, addend: 0x0, symName: __ZNSt3__19allocatorINS_12basic_stringIcNS_11char_traitsIcEENS0_IcEEEEE10deallocateB7v160006EPS5_m, symObjAddr: 0x79B4, symBinAddr: 0x10000B30C, symSize: 0x44 }
  - { offsetInCU: 0x1D262, offset: 0x1D262, size: 0x8, addend: 0x0, symName: __ZNSt3__117__compressed_pairIPNS_12basic_stringIcNS_11char_traitsIcEENS_9allocatorIcEEEENS4_IS6_EEE6secondB7v160006Ev, symObjAddr: 0x79F8, symBinAddr: 0x10000B350, symSize: 0x24 }
  - { offsetInCU: 0x1D288, offset: 0x1D288, size: 0x8, addend: 0x0, symName: __ZNSt3__122__compressed_pair_elemINS_9allocatorINS_12basic_stringIcNS_11char_traitsIcEENS1_IcEEEEEELi1ELb1EE5__getB7v160006Ev, symObjAddr: 0x7A1C, symBinAddr: 0x10000B374, symSize: 0x14 }
  - { offsetInCU: 0x1D2AE, offset: 0x1D2AE, size: 0x8, addend: 0x0, symName: __ZNKSt3__16vectorINS_12basic_stringIcNS_11char_traitsIcEENS_9allocatorIcEEEENS4_IS6_EEE9__end_capB7v160006Ev, symObjAddr: 0x7A30, symBinAddr: 0x10000B388, symSize: 0x28 }
  - { offsetInCU: 0x1D2D4, offset: 0x1D2D4, size: 0x8, addend: 0x0, symName: __ZNKSt3__117__compressed_pairIPNS_12basic_stringIcNS_11char_traitsIcEENS_9allocatorIcEEEENS4_IS6_EEE5firstB7v160006Ev, symObjAddr: 0x7A58, symBinAddr: 0x10000B3B0, symSize: 0x24 }
  - { offsetInCU: 0x1D2FA, offset: 0x1D2FA, size: 0x8, addend: 0x0, symName: __ZNKSt3__122__compressed_pair_elemIPNS_12basic_stringIcNS_11char_traitsIcEENS_9allocatorIcEEEELi0ELb0EE5__getB7v160006Ev, symObjAddr: 0x7A7C, symBinAddr: 0x10000B3D4, symSize: 0x14 }
  - { offsetInCU: 0x1D33E, offset: 0x1D33E, size: 0x8, addend: 0x0, symName: __ZNKSt3__113basic_istreamIcNS_11char_traitsIcEEE6sentrycvbB7v160006Ev, symObjAddr: 0x7A90, symBinAddr: 0x10000B3E8, symSize: 0x1C }
  - { offsetInCU: 0x1D364, offset: 0x1D364, size: 0x8, addend: 0x0, symName: __ZNSt3__112basic_stringIcNS_11char_traitsIcEENS_9allocatorIcEEE5clearB7v160006Ev, symObjAddr: 0x7AAC, symBinAddr: 0x10000B404, symSize: 0x88 }
  - { offsetInCU: 0x1D38C, offset: 0x1D38C, size: 0x8, addend: 0x0, symName: __ZNSt3__115basic_streambufIcNS_11char_traitsIcEEE6sbumpcB7v160006Ev, symObjAddr: 0x7B34, symBinAddr: 0x10000B48C, symSize: 0x78 }
  - { offsetInCU: 0x1D3B2, offset: 0x1D3B2, size: 0x8, addend: 0x0, symName: __ZNSt3__111char_traitsIcE12to_char_typeEi, symObjAddr: 0x7BAC, symBinAddr: 0x10000B504, symSize: 0x18 }
  - { offsetInCU: 0x1D3D5, offset: 0x1D3D5, size: 0x8, addend: 0x0, symName: __ZNSt3__111char_traitsIcE2eqEcc, symObjAddr: 0x7BC4, symBinAddr: 0x10000B51C, symSize: 0x28 }
  - { offsetInCU: 0x1D406, offset: 0x1D406, size: 0x8, addend: 0x0, symName: __ZNKSt3__112basic_stringIcNS_11char_traitsIcEENS_9allocatorIcEEE8max_sizeB7v160006Ev, symObjAddr: 0x7BEC, symBinAddr: 0x10000B544, symSize: 0xAC }
  - { offsetInCU: 0x1D458, offset: 0x1D458, size: 0x8, addend: 0x0, symName: __ZNSt3__18ios_base18__setstate_nothrowB7v160006Ej, symObjAddr: 0x7C98, symBinAddr: 0x10000B5F0, symSize: 0x64 }
  - { offsetInCU: 0x1D48D, offset: 0x1D48D, size: 0x8, addend: 0x0, symName: __ZNKSt3__19basic_iosIcNS_11char_traitsIcEEE10exceptionsB7v160006Ev, symObjAddr: 0x7CFC, symBinAddr: 0x10000B654, symSize: 0x24 }
  - { offsetInCU: 0x1D4B3, offset: 0x1D4B3, size: 0x8, addend: 0x0, symName: __ZNSt3__111char_traitsIcE6assignERcRKc, symObjAddr: 0x7D30, symBinAddr: 0x10000B688, symSize: 0x24 }
  - { offsetInCU: 0x1D4E4, offset: 0x1D4E4, size: 0x8, addend: 0x0, symName: __ZNSt3__112basic_stringIcNS_11char_traitsIcEENS_9allocatorIcEEE18__get_long_pointerB7v160006Ev, symObjAddr: 0x7D54, symBinAddr: 0x10000B6AC, symSize: 0x28 }
  - { offsetInCU: 0x1D50A, offset: 0x1D50A, size: 0x8, addend: 0x0, symName: __ZNSt3__112basic_stringIcNS_11char_traitsIcEENS_9allocatorIcEEE15__set_long_sizeB7v160006Em, symObjAddr: 0x7D7C, symBinAddr: 0x10000B6D4, symSize: 0x38 }
  - { offsetInCU: 0x1D53F, offset: 0x1D53F, size: 0x8, addend: 0x0, symName: __ZNSt3__112basic_stringIcNS_11char_traitsIcEENS_9allocatorIcEEE19__get_short_pointerB7v160006Ev, symObjAddr: 0x7DB4, symBinAddr: 0x10000B70C, symSize: 0x28 }
  - { offsetInCU: 0x1D565, offset: 0x1D565, size: 0x8, addend: 0x0, symName: __ZNSt3__112basic_stringIcNS_11char_traitsIcEENS_9allocatorIcEEE16__set_short_sizeB7v160006Em, symObjAddr: 0x7DDC, symBinAddr: 0x10000B734, symSize: 0x78 }
  - { offsetInCU: 0x1D59A, offset: 0x1D59A, size: 0x8, addend: 0x0, symName: __ZNSt3__114pointer_traitsIPcE10pointer_toB7v160006ERc, symObjAddr: 0x7E54, symBinAddr: 0x10000B7AC, symSize: 0x14 }
  - { offsetInCU: 0x1D5BD, offset: 0x1D5BD, size: 0x8, addend: 0x0, symName: __ZNSt3__111char_traitsIcE11to_int_typeEc, symObjAddr: 0x7E68, symBinAddr: 0x10000B7C0, symSize: 0x14 }
  - { offsetInCU: 0x1D5EA, offset: 0x1D5EA, size: 0x8, addend: 0x0, symName: __ZNSt3__116allocator_traitsINS_9allocatorIcEEE8max_sizeB7v160006IS2_vEEmRKS2_, symObjAddr: 0x7E7C, symBinAddr: 0x10000B7D4, symSize: 0x24 }
  - { offsetInCU: 0x1D618, offset: 0x1D618, size: 0x8, addend: 0x0, symName: __ZNSt3__114numeric_limitsImE3maxB7v160006Ev, symObjAddr: 0x7EA0, symBinAddr: 0x10000B7F8, symSize: 0x14 }
  - { offsetInCU: 0x1D62C, offset: 0x1D62C, size: 0x8, addend: 0x0, symName: __ZNKSt3__19allocatorIcE8max_sizeB7v160006Ev, symObjAddr: 0x7EB4, symBinAddr: 0x10000B80C, symSize: 0x14 }
  - { offsetInCU: 0x1D652, offset: 0x1D652, size: 0x8, addend: 0x0, symName: __ZNSt3__123__libcpp_numeric_limitsImLb1EE3maxB7v160006Ev, symObjAddr: 0x7EC8, symBinAddr: 0x10000B820, symSize: 0x8 }
  - { offsetInCU: 0x1D666, offset: 0x1D666, size: 0x8, addend: 0x0, symName: __ZNKSt3__18ios_base10exceptionsB7v160006Ev, symObjAddr: 0x7ED0, symBinAddr: 0x10000B828, symSize: 0x18 }
  - { offsetInCU: 0x1D68E, offset: 0x1D68E, size: 0x8, addend: 0x0, symName: __ZNSt3__16vectorINS_12basic_stringIcNS_11char_traitsIcEENS_9allocatorIcEEEENS4_IS6_EEE9__end_capB7v160006Ev, symObjAddr: 0x7EE8, symBinAddr: 0x10000B840, symSize: 0x28 }
  - { offsetInCU: 0x1D6B4, offset: 0x1D6B4, size: 0x8, addend: 0x0, symName: __ZNSt3__16vectorINS_12basic_stringIcNS_11char_traitsIcEENS_9allocatorIcEEEENS4_IS6_EEE22__construct_one_at_endB7v160006IJRKS6_EEEvDpOT_, symObjAddr: 0x7F10, symBinAddr: 0x10000B868, symSize: 0x90 }
  - { offsetInCU: 0x1D703, offset: 0x1D703, size: 0x8, addend: 0x0, symName: __ZNSt3__16vectorINS_12basic_stringIcNS_11char_traitsIcEENS_9allocatorIcEEEENS4_IS6_EEE21__push_back_slow_pathIRKS6_EEvOT_, symObjAddr: 0x7FA0, symBinAddr: 0x10000B8F8, symSize: 0xD8 }
  - { offsetInCU: 0x1D761, offset: 0x1D761, size: 0x8, addend: 0x0, symName: __ZNSt3__117__compressed_pairIPNS_12basic_stringIcNS_11char_traitsIcEENS_9allocatorIcEEEENS4_IS6_EEE5firstB7v160006Ev, symObjAddr: 0x8078, symBinAddr: 0x10000B9D0, symSize: 0x24 }
  - { offsetInCU: 0x1D787, offset: 0x1D787, size: 0x8, addend: 0x0, symName: __ZNSt3__122__compressed_pair_elemIPNS_12basic_stringIcNS_11char_traitsIcEENS_9allocatorIcEEEELi0ELb0EE5__getB7v160006Ev, symObjAddr: 0x809C, symBinAddr: 0x10000B9F4, symSize: 0x14 }
  - { offsetInCU: 0x1D7C6, offset: 0x1D7C6, size: 0x8, addend: 0x0, symName: __ZNSt3__16vectorINS_12basic_stringIcNS_11char_traitsIcEENS_9allocatorIcEEEENS4_IS6_EEE21_ConstructTransactionC1B7v160006ERS8_m, symObjAddr: 0x80B0, symBinAddr: 0x10000BA08, symSize: 0x3C }
  - { offsetInCU: 0x1D80E, offset: 0x1D80E, size: 0x8, addend: 0x0, symName: __ZNSt3__116allocator_traitsINS_9allocatorINS_12basic_stringIcNS_11char_traitsIcEENS1_IcEEEEEEE9constructB7v160006IS6_JRKS6_EvEEvRS7_PT_DpOT0_, symObjAddr: 0x80EC, symBinAddr: 0x10000BA44, symSize: 0x34 }
  - { offsetInCU: 0x1D865, offset: 0x1D865, size: 0x8, addend: 0x0, symName: __ZNSt3__16vectorINS_12basic_stringIcNS_11char_traitsIcEENS_9allocatorIcEEEENS4_IS6_EEE21_ConstructTransactionD1B7v160006Ev, symObjAddr: 0x8120, symBinAddr: 0x10000BA78, symSize: 0x2C }
  - { offsetInCU: 0x1D88F, offset: 0x1D88F, size: 0x8, addend: 0x0, symName: __ZNSt3__16vectorINS_12basic_stringIcNS_11char_traitsIcEENS_9allocatorIcEEEENS4_IS6_EEE21_ConstructTransactionC2B7v160006ERS8_m, symObjAddr: 0x814C, symBinAddr: 0x10000BAA4, symSize: 0x4C }
  - { offsetInCU: 0x1D8D7, offset: 0x1D8D7, size: 0x8, addend: 0x0, symName: __ZNSt3__19allocatorINS_12basic_stringIcNS_11char_traitsIcEENS0_IcEEEEE9constructB7v160006IS5_JRKS5_EEEvPT_DpOT0_, symObjAddr: 0x8198, symBinAddr: 0x10000BAF0, symSize: 0x30 }
  - { offsetInCU: 0x1D92D, offset: 0x1D92D, size: 0x8, addend: 0x0, symName: __ZNSt3__16vectorINS_12basic_stringIcNS_11char_traitsIcEENS_9allocatorIcEEEENS4_IS6_EEE21_ConstructTransactionD2B7v160006Ev, symObjAddr: 0x81C8, symBinAddr: 0x10000BB20, symSize: 0x20 }
  - { offsetInCU: 0x1D957, offset: 0x1D957, size: 0x8, addend: 0x0, symName: __ZNKSt3__16vectorINS_12basic_stringIcNS_11char_traitsIcEENS_9allocatorIcEEEENS4_IS6_EEE11__recommendB7v160006Em, symObjAddr: 0x81E8, symBinAddr: 0x10000BB40, symSize: 0xB4 }
  - { offsetInCU: 0x1D9AC, offset: 0x1D9AC, size: 0x8, addend: 0x0, symName: __ZNSt3__114__split_bufferINS_12basic_stringIcNS_11char_traitsIcEENS_9allocatorIcEEEERNS4_IS6_EEEC1EmmS8_, symObjAddr: 0x829C, symBinAddr: 0x10000BBF4, symSize: 0x44 }
  - { offsetInCU: 0x1DA02, offset: 0x1DA02, size: 0x8, addend: 0x0, symName: __ZNSt3__114__split_bufferINS_12basic_stringIcNS_11char_traitsIcEENS_9allocatorIcEEEERNS4_IS6_EEED1Ev, symObjAddr: 0x83F8, symBinAddr: 0x10000BD50, symSize: 0x2C }
  - { offsetInCU: 0x1DA2E, offset: 0x1DA2E, size: 0x8, addend: 0x0, symName: __ZNKSt3__16vectorINS_12basic_stringIcNS_11char_traitsIcEENS_9allocatorIcEEEENS4_IS6_EEE8max_sizeEv, symObjAddr: 0x8424, symBinAddr: 0x10000BD7C, symSize: 0x60 }
  - { offsetInCU: 0x1DA56, offset: 0x1DA56, size: 0x8, addend: 0x0, symName: __ZNKSt3__16vectorINS_12basic_stringIcNS_11char_traitsIcEENS_9allocatorIcEEEENS4_IS6_EEE20__throw_length_errorB7v160006Ev, symObjAddr: 0x8484, symBinAddr: 0x10000BDDC, symSize: 0x1C }
  - { offsetInCU: 0x1DA86, offset: 0x1DA86, size: 0x8, addend: 0x0, symName: __ZNSt3__116allocator_traitsINS_9allocatorINS_12basic_stringIcNS_11char_traitsIcEENS1_IcEEEEEEE8max_sizeB7v160006IS7_vEEmRKS7_, symObjAddr: 0x84A0, symBinAddr: 0x10000BDF8, symSize: 0x24 }
  - { offsetInCU: 0x1DAB4, offset: 0x1DAB4, size: 0x8, addend: 0x0, symName: __ZNKSt3__16vectorINS_12basic_stringIcNS_11char_traitsIcEENS_9allocatorIcEEEENS4_IS6_EEE7__allocB7v160006Ev, symObjAddr: 0x84C4, symBinAddr: 0x10000BE1C, symSize: 0x28 }
  - { offsetInCU: 0x1DADA, offset: 0x1DADA, size: 0x8, addend: 0x0, symName: __ZNKSt3__19allocatorINS_12basic_stringIcNS_11char_traitsIcEENS0_IcEEEEE8max_sizeB7v160006Ev, symObjAddr: 0x84EC, symBinAddr: 0x10000BE44, symSize: 0x18 }
  - { offsetInCU: 0x1DB00, offset: 0x1DB00, size: 0x8, addend: 0x0, symName: __ZNKSt3__117__compressed_pairIPNS_12basic_stringIcNS_11char_traitsIcEENS_9allocatorIcEEEENS4_IS6_EEE6secondB7v160006Ev, symObjAddr: 0x8504, symBinAddr: 0x10000BE5C, symSize: 0x24 }
  - { offsetInCU: 0x1DB26, offset: 0x1DB26, size: 0x8, addend: 0x0, symName: __ZNKSt3__122__compressed_pair_elemINS_9allocatorINS_12basic_stringIcNS_11char_traitsIcEENS1_IcEEEEEELi1ELb1EE5__getB7v160006Ev, symObjAddr: 0x8528, symBinAddr: 0x10000BE80, symSize: 0x14 }
  - { offsetInCU: 0x1DB4C, offset: 0x1DB4C, size: 0x8, addend: 0x0, symName: __ZNSt3__114__split_bufferINS_12basic_stringIcNS_11char_traitsIcEENS_9allocatorIcEEEERNS4_IS6_EEEC2EmmS8_, symObjAddr: 0x853C, symBinAddr: 0x10000BE94, symSize: 0xE0 }
  - { offsetInCU: 0x1DBBF, offset: 0x1DBBF, size: 0x8, addend: 0x0, symName: __ZNSt3__117__compressed_pairIPNS_12basic_stringIcNS_11char_traitsIcEENS_9allocatorIcEEEERNS4_IS6_EEEC1B7v160006IDnS9_EEOT_OT0_, symObjAddr: 0x861C, symBinAddr: 0x10000BF74, symSize: 0x3C }
  - { offsetInCU: 0x1DC17, offset: 0x1DC17, size: 0x8, addend: 0x0, symName: __ZNSt3__114__split_bufferINS_12basic_stringIcNS_11char_traitsIcEENS_9allocatorIcEEEERNS4_IS6_EEE7__allocB7v160006Ev, symObjAddr: 0x8698, symBinAddr: 0x10000BFF0, symSize: 0x28 }
  - { offsetInCU: 0x1DC3D, offset: 0x1DC3D, size: 0x8, addend: 0x0, symName: __ZNSt3__114__split_bufferINS_12basic_stringIcNS_11char_traitsIcEENS_9allocatorIcEEEERNS4_IS6_EEE9__end_capB7v160006Ev, symObjAddr: 0x86C0, symBinAddr: 0x10000C018, symSize: 0x28 }
  - { offsetInCU: 0x1DC63, offset: 0x1DC63, size: 0x8, addend: 0x0, symName: __ZNSt3__117__compressed_pairIPNS_12basic_stringIcNS_11char_traitsIcEENS_9allocatorIcEEEERNS4_IS6_EEEC2B7v160006IDnS9_EEOT_OT0_, symObjAddr: 0x86E8, symBinAddr: 0x10000C040, symSize: 0x48 }
  - { offsetInCU: 0x1DCBB, offset: 0x1DCBB, size: 0x8, addend: 0x0, symName: __ZNSt3__122__compressed_pair_elemIRNS_9allocatorINS_12basic_stringIcNS_11char_traitsIcEENS1_IcEEEEEELi1ELb0EEC2B7v160006IS8_vEEOT_, symObjAddr: 0x8730, symBinAddr: 0x10000C088, symSize: 0x20 }
  - { offsetInCU: 0x1DCFD, offset: 0x1DCFD, size: 0x8, addend: 0x0, symName: __ZNSt3__19allocatorINS_12basic_stringIcNS_11char_traitsIcEENS0_IcEEEEE8allocateB7v160006Em, symObjAddr: 0x8750, symBinAddr: 0x10000C0A8, symSize: 0x5C }
  - { offsetInCU: 0x1DD31, offset: 0x1DD31, size: 0x8, addend: 0x0, symName: __ZNSt3__117__compressed_pairIPNS_12basic_stringIcNS_11char_traitsIcEENS_9allocatorIcEEEERNS4_IS6_EEE6secondB7v160006Ev, symObjAddr: 0x87AC, symBinAddr: 0x10000C104, symSize: 0x28 }
  - { offsetInCU: 0x1DD57, offset: 0x1DD57, size: 0x8, addend: 0x0, symName: __ZNSt3__122__compressed_pair_elemIRNS_9allocatorINS_12basic_stringIcNS_11char_traitsIcEENS1_IcEEEEEELi1ELb0EE5__getB7v160006Ev, symObjAddr: 0x87D4, symBinAddr: 0x10000C12C, symSize: 0x18 }
  - { offsetInCU: 0x1DD7D, offset: 0x1DD7D, size: 0x8, addend: 0x0, symName: __ZNSt3__117__compressed_pairIPNS_12basic_stringIcNS_11char_traitsIcEENS_9allocatorIcEEEERNS4_IS6_EEE5firstB7v160006Ev, symObjAddr: 0x87EC, symBinAddr: 0x10000C144, symSize: 0x24 }
  - { offsetInCU: 0x1DDA3, offset: 0x1DDA3, size: 0x8, addend: 0x0, symName: __ZNSt3__116reverse_iteratorIPNS_12basic_stringIcNS_11char_traitsIcEENS_9allocatorIcEEEEEC1B7v160006ES7_, symObjAddr: 0x893C, symBinAddr: 0x10000C294, symSize: 0x34 }
  - { offsetInCU: 0x1DDDB, offset: 0x1DDDB, size: 0x8, addend: 0x0, symName: __ZNKSt3__116reverse_iteratorIPNS_12basic_stringIcNS_11char_traitsIcEENS_9allocatorIcEEEEE4baseB7v160006Ev, symObjAddr: 0x8970, symBinAddr: 0x10000C2C8, symSize: 0x18 }
  - { offsetInCU: 0x1DE01, offset: 0x1DE01, size: 0x8, addend: 0x0, symName: __ZNKSt3__16vectorINS_12basic_stringIcNS_11char_traitsIcEENS_9allocatorIcEEEENS4_IS6_EEE14__annotate_newB7v160006Em, symObjAddr: 0x89C4, symBinAddr: 0x10000C31C, symSize: 0xC8 }
  - { offsetInCU: 0x1DE36, offset: 0x1DE36, size: 0x8, addend: 0x0, symName: __ZNSt3__129_AllocatorDestroyRangeReverseINS_9allocatorINS_12basic_stringIcNS_11char_traitsIcEENS1_IcEEEEEENS_16reverse_iteratorIPS6_EEEC1B7v160006ERS7_RSA_SD_, symObjAddr: 0x8AE8, symBinAddr: 0x10000C440, symSize: 0x44 }
  - { offsetInCU: 0x1DE93, offset: 0x1DE93, size: 0x8, addend: 0x0, symName: __ZNSt3__116allocator_traitsINS_9allocatorINS_12basic_stringIcNS_11char_traitsIcEENS1_IcEEEEEEE9constructB7v160006IS6_JS6_EvEEvRS7_PT_DpOT0_, symObjAddr: 0x8B74, symBinAddr: 0x10000C4CC, symSize: 0x34 }
  - { offsetInCU: 0x1DEEA, offset: 0x1DEEA, size: 0x8, addend: 0x0, symName: __ZNKSt3__116reverse_iteratorIPNS_12basic_stringIcNS_11char_traitsIcEENS_9allocatorIcEEEEEdeB7v160006Ev, symObjAddr: 0x8BCC, symBinAddr: 0x10000C524, symSize: 0x28 }
  - { offsetInCU: 0x1DF1E, offset: 0x1DF1E, size: 0x8, addend: 0x0, symName: __ZNSt3__116reverse_iteratorIPNS_12basic_stringIcNS_11char_traitsIcEENS_9allocatorIcEEEEEppB7v160006Ev, symObjAddr: 0x8BF4, symBinAddr: 0x10000C54C, symSize: 0x20 }
  - { offsetInCU: 0x1DF44, offset: 0x1DF44, size: 0x8, addend: 0x0, symName: __ZNSt3__128__exception_guard_exceptionsINS_29_AllocatorDestroyRangeReverseINS_9allocatorINS_12basic_stringIcNS_11char_traitsIcEENS2_IcEEEEEENS_16reverse_iteratorIPS7_EEEEE10__completeB7v160006Ev, symObjAddr: 0x8C14, symBinAddr: 0x10000C56C, symSize: 0x1C }
  - { offsetInCU: 0x1DF6A, offset: 0x1DF6A, size: 0x8, addend: 0x0, symName: __ZNSt3__128__exception_guard_exceptionsINS_29_AllocatorDestroyRangeReverseINS_9allocatorINS_12basic_stringIcNS_11char_traitsIcEENS2_IcEEEEEENS_16reverse_iteratorIPS7_EEEEED1B7v160006Ev, symObjAddr: 0x8C30, symBinAddr: 0x10000C588, symSize: 0x2C }
  - { offsetInCU: 0x1DF94, offset: 0x1DF94, size: 0x8, addend: 0x0, symName: __ZNSt3__128__exception_guard_exceptionsINS_29_AllocatorDestroyRangeReverseINS_9allocatorINS_12basic_stringIcNS_11char_traitsIcEENS2_IcEEEEEENS_16reverse_iteratorIPS7_EEEEEC1B7v160006ESC_, symObjAddr: 0x8C5C, symBinAddr: 0x10000C5B4, symSize: 0x34 }
  - { offsetInCU: 0x1DFCD, offset: 0x1DFCD, size: 0x8, addend: 0x0, symName: __ZNSt3__128__exception_guard_exceptionsINS_29_AllocatorDestroyRangeReverseINS_9allocatorINS_12basic_stringIcNS_11char_traitsIcEENS2_IcEEEEEENS_16reverse_iteratorIPS7_EEEEEC2B7v160006ESC_, symObjAddr: 0x8C90, symBinAddr: 0x10000C5E8, symSize: 0x30 }
  - { offsetInCU: 0x1E006, offset: 0x1E006, size: 0x8, addend: 0x0, symName: __ZNSt3__129_AllocatorDestroyRangeReverseINS_9allocatorINS_12basic_stringIcNS_11char_traitsIcEENS1_IcEEEEEENS_16reverse_iteratorIPS6_EEEC2B7v160006ERS7_RSA_SD_, symObjAddr: 0x8CC0, symBinAddr: 0x10000C618, symSize: 0x38 }
  - { offsetInCU: 0x1E05D, offset: 0x1E05D, size: 0x8, addend: 0x0, symName: __ZNSt3__19allocatorINS_12basic_stringIcNS_11char_traitsIcEENS0_IcEEEEE9constructB7v160006IS5_JS5_EEEvPT_DpOT0_, symObjAddr: 0x8CF8, symBinAddr: 0x10000C650, symSize: 0x30 }
  - { offsetInCU: 0x1E0B3, offset: 0x1E0B3, size: 0x8, addend: 0x0, symName: __ZNSt3__112basic_stringIcNS_11char_traitsIcEENS_9allocatorIcEEEC1B7v160006EOS5_, symObjAddr: 0x8D28, symBinAddr: 0x10000C680, symSize: 0x34 }
  - { offsetInCU: 0x1E0EC, offset: 0x1E0EC, size: 0x8, addend: 0x0, symName: __ZNSt3__112basic_stringIcNS_11char_traitsIcEENS_9allocatorIcEEEC2B7v160006EOS5_, symObjAddr: 0x8D5C, symBinAddr: 0x10000C6B4, symSize: 0x80 }
  - { offsetInCU: 0x1E12A, offset: 0x1E12A, size: 0x8, addend: 0x0, symName: __ZNSt3__119__to_address_helperINS_16reverse_iteratorIPNS_12basic_stringIcNS_11char_traitsIcEENS_9allocatorIcEEEEEEvE6__callB7v160006ERKS9_, symObjAddr: 0x8DF0, symBinAddr: 0x10000C748, symSize: 0x38 }
  - { offsetInCU: 0x1E14D, offset: 0x1E14D, size: 0x8, addend: 0x0, symName: __ZNKSt3__116reverse_iteratorIPNS_12basic_stringIcNS_11char_traitsIcEENS_9allocatorIcEEEEEptB7v160006Ev, symObjAddr: 0x8E28, symBinAddr: 0x10000C780, symSize: 0x24 }
  - { offsetInCU: 0x1E173, offset: 0x1E173, size: 0x8, addend: 0x0, symName: __ZNSt3__128__exception_guard_exceptionsINS_29_AllocatorDestroyRangeReverseINS_9allocatorINS_12basic_stringIcNS_11char_traitsIcEENS2_IcEEEEEENS_16reverse_iteratorIPS7_EEEEED2B7v160006Ev, symObjAddr: 0x8E4C, symBinAddr: 0x10000C7A4, symSize: 0x50 }
  - { offsetInCU: 0x1E19D, offset: 0x1E19D, size: 0x8, addend: 0x0, symName: __ZNKSt3__129_AllocatorDestroyRangeReverseINS_9allocatorINS_12basic_stringIcNS_11char_traitsIcEENS1_IcEEEEEENS_16reverse_iteratorIPS6_EEEclB7v160006Ev, symObjAddr: 0x8E9C, symBinAddr: 0x10000C7F4, symSize: 0xB4 }
  - { offsetInCU: 0x1E1C4, offset: 0x1E1C4, size: 0x8, addend: 0x0, symName: __ZNSt3__116reverse_iteratorINS0_IPNS_12basic_stringIcNS_11char_traitsIcEENS_9allocatorIcEEEEEEEC1B7v160006ES8_, symObjAddr: 0x8FC0, symBinAddr: 0x10000C918, symSize: 0x3C }
  - { offsetInCU: 0x1E1FC, offset: 0x1E1FC, size: 0x8, addend: 0x0, symName: __ZNSt3__116reverse_iteratorINS0_IPNS_12basic_stringIcNS_11char_traitsIcEENS_9allocatorIcEEEEEEEppB7v160006Ev, symObjAddr: 0x9080, symBinAddr: 0x10000C9D8, symSize: 0x30 }
  - { offsetInCU: 0x1E222, offset: 0x1E222, size: 0x8, addend: 0x0, symName: __ZNKSt3__116reverse_iteratorINS0_IPNS_12basic_stringIcNS_11char_traitsIcEENS_9allocatorIcEEEEEEE4baseB7v160006Ev, symObjAddr: 0x90B0, symBinAddr: 0x10000CA08, symSize: 0x24 }
  - { offsetInCU: 0x1E24D, offset: 0x1E24D, size: 0x8, addend: 0x0, symName: __ZNSt3__119__to_address_helperINS_16reverse_iteratorINS1_IPNS_12basic_stringIcNS_11char_traitsIcEENS_9allocatorIcEEEEEEEEvE6__callB7v160006ERKSA_, symObjAddr: 0x90D4, symBinAddr: 0x10000CA2C, symSize: 0x38 }
  - { offsetInCU: 0x1E270, offset: 0x1E270, size: 0x8, addend: 0x0, symName: __ZNKSt3__116reverse_iteratorINS0_IPNS_12basic_stringIcNS_11char_traitsIcEENS_9allocatorIcEEEEEEEptB7v160006Ev, symObjAddr: 0x910C, symBinAddr: 0x10000CA64, symSize: 0x24 }
  - { offsetInCU: 0x1E296, offset: 0x1E296, size: 0x8, addend: 0x0, symName: __ZNKSt3__116reverse_iteratorINS0_IPNS_12basic_stringIcNS_11char_traitsIcEENS_9allocatorIcEEEEEEEdeB7v160006Ev, symObjAddr: 0x9130, symBinAddr: 0x10000CA88, symSize: 0x34 }
  - { offsetInCU: 0x1E2CA, offset: 0x1E2CA, size: 0x8, addend: 0x0, symName: __ZNSt3__116reverse_iteratorIPNS_12basic_stringIcNS_11char_traitsIcEENS_9allocatorIcEEEEEmmB7v160006Ev, symObjAddr: 0x9164, symBinAddr: 0x10000CABC, symSize: 0x20 }
  - { offsetInCU: 0x1E2F0, offset: 0x1E2F0, size: 0x8, addend: 0x0, symName: __ZNSt3__116reverse_iteratorINS0_IPNS_12basic_stringIcNS_11char_traitsIcEENS_9allocatorIcEEEEEEEC2B7v160006ES8_, symObjAddr: 0x9184, symBinAddr: 0x10000CADC, symSize: 0x2C }
  - { offsetInCU: 0x1E328, offset: 0x1E328, size: 0x8, addend: 0x0, symName: __ZNSt3__116reverse_iteratorIPNS_12basic_stringIcNS_11char_traitsIcEENS_9allocatorIcEEEEEC2B7v160006ES7_, symObjAddr: 0x91B0, symBinAddr: 0x10000CB08, symSize: 0x28 }
  - { offsetInCU: 0x1E360, offset: 0x1E360, size: 0x8, addend: 0x0, symName: __ZNSt3__114__split_bufferINS_12basic_stringIcNS_11char_traitsIcEENS_9allocatorIcEEEERNS4_IS6_EEED2Ev, symObjAddr: 0x91D8, symBinAddr: 0x10000CB30, symSize: 0x8C }
  - { offsetInCU: 0x1E38C, offset: 0x1E38C, size: 0x8, addend: 0x0, symName: __ZNSt3__114__split_bufferINS_12basic_stringIcNS_11char_traitsIcEENS_9allocatorIcEEEERNS4_IS6_EEE5clearB7v160006Ev, symObjAddr: 0x9264, symBinAddr: 0x10000CBBC, symSize: 0x28 }
  - { offsetInCU: 0x1E3B2, offset: 0x1E3B2, size: 0x8, addend: 0x0, symName: __ZNKSt3__114__split_bufferINS_12basic_stringIcNS_11char_traitsIcEENS_9allocatorIcEEEERNS4_IS6_EEE8capacityB7v160006Ev, symObjAddr: 0x928C, symBinAddr: 0x10000CBE4, symSize: 0x40 }
  - { offsetInCU: 0x1E3D8, offset: 0x1E3D8, size: 0x8, addend: 0x0, symName: __ZNSt3__114__split_bufferINS_12basic_stringIcNS_11char_traitsIcEENS_9allocatorIcEEEERNS4_IS6_EEE17__destruct_at_endB7v160006EPS6_, symObjAddr: 0x92CC, symBinAddr: 0x10000CC24, symSize: 0x2C }
  - { offsetInCU: 0x1E40C, offset: 0x1E40C, size: 0x8, addend: 0x0, symName: __ZNSt3__114__split_bufferINS_12basic_stringIcNS_11char_traitsIcEENS_9allocatorIcEEEERNS4_IS6_EEE17__destruct_at_endB7v160006EPS6_NS_17integral_constantIbLb0EEE, symObjAddr: 0x92F8, symBinAddr: 0x10000CC50, symSize: 0x80 }
  - { offsetInCU: 0x1E44C, offset: 0x1E44C, size: 0x8, addend: 0x0, symName: __ZNKSt3__114__split_bufferINS_12basic_stringIcNS_11char_traitsIcEENS_9allocatorIcEEEERNS4_IS6_EEE9__end_capB7v160006Ev, symObjAddr: 0x9378, symBinAddr: 0x10000CCD0, symSize: 0x28 }
  - { offsetInCU: 0x1E472, offset: 0x1E472, size: 0x8, addend: 0x0, symName: __ZNKSt3__117__compressed_pairIPNS_12basic_stringIcNS_11char_traitsIcEENS_9allocatorIcEEEERNS4_IS6_EEE5firstB7v160006Ev, symObjAddr: 0x93A0, symBinAddr: 0x10000CCF8, symSize: 0x24 }
  - { offsetInCU: 0x1E498, offset: 0x1E498, size: 0x8, addend: 0x0, symName: __ZNSt3__16vectorI6RecordNS_9allocatorIS1_EEE9__end_capB7v160006Ev, symObjAddr: 0x93C4, symBinAddr: 0x10000CD1C, symSize: 0x28 }
  - { offsetInCU: 0x1E4BE, offset: 0x1E4BE, size: 0x8, addend: 0x0, symName: __ZNSt3__16vectorI6RecordNS_9allocatorIS1_EEE22__construct_one_at_endB7v160006IJRKS1_EEEvDpOT_, symObjAddr: 0x93EC, symBinAddr: 0x10000CD44, symSize: 0x90 }
  - { offsetInCU: 0x1E50D, offset: 0x1E50D, size: 0x8, addend: 0x0, symName: __ZNSt3__16vectorI6RecordNS_9allocatorIS1_EEE21__push_back_slow_pathIRKS1_EEvOT_, symObjAddr: 0x947C, symBinAddr: 0x10000CDD4, symSize: 0xD8 }
  - { offsetInCU: 0x1E56B, offset: 0x1E56B, size: 0x8, addend: 0x0, symName: __ZNSt3__117__compressed_pairIP6RecordNS_9allocatorIS1_EEE5firstB7v160006Ev, symObjAddr: 0x9554, symBinAddr: 0x10000CEAC, symSize: 0x24 }
  - { offsetInCU: 0x1E591, offset: 0x1E591, size: 0x8, addend: 0x0, symName: __ZNSt3__122__compressed_pair_elemIP6RecordLi0ELb0EE5__getB7v160006Ev, symObjAddr: 0x9578, symBinAddr: 0x10000CED0, symSize: 0x14 }
  - { offsetInCU: 0x1E5D0, offset: 0x1E5D0, size: 0x8, addend: 0x0, symName: __ZNSt3__16vectorI6RecordNS_9allocatorIS1_EEE21_ConstructTransactionC1B7v160006ERS4_m, symObjAddr: 0x958C, symBinAddr: 0x10000CEE4, symSize: 0x3C }
  - { offsetInCU: 0x1E618, offset: 0x1E618, size: 0x8, addend: 0x0, symName: __ZNSt3__116allocator_traitsINS_9allocatorI6RecordEEE9constructB7v160006IS2_JRKS2_EvEEvRS3_PT_DpOT0_, symObjAddr: 0x95C8, symBinAddr: 0x10000CF20, symSize: 0x34 }
  - { offsetInCU: 0x1E66F, offset: 0x1E66F, size: 0x8, addend: 0x0, symName: __ZNSt3__16vectorI6RecordNS_9allocatorIS1_EEE21_ConstructTransactionD1B7v160006Ev, symObjAddr: 0x95FC, symBinAddr: 0x10000CF54, symSize: 0x2C }
  - { offsetInCU: 0x1E699, offset: 0x1E699, size: 0x8, addend: 0x0, symName: __ZNSt3__16vectorI6RecordNS_9allocatorIS1_EEE21_ConstructTransactionC2B7v160006ERS4_m, symObjAddr: 0x9628, symBinAddr: 0x10000CF80, symSize: 0x4C }
  - { offsetInCU: 0x1E6E1, offset: 0x1E6E1, size: 0x8, addend: 0x0, symName: __ZNSt3__19allocatorI6RecordE9constructB7v160006IS1_JRKS1_EEEvPT_DpOT0_, symObjAddr: 0x9674, symBinAddr: 0x10000CFCC, symSize: 0x34 }
  - { offsetInCU: 0x1E737, offset: 0x1E737, size: 0x8, addend: 0x0, symName: __ZNSt3__16vectorI6RecordNS_9allocatorIS1_EEE21_ConstructTransactionD2B7v160006Ev, symObjAddr: 0x96A8, symBinAddr: 0x10000D000, symSize: 0x20 }
  - { offsetInCU: 0x1E761, offset: 0x1E761, size: 0x8, addend: 0x0, symName: __ZNKSt3__16vectorI6RecordNS_9allocatorIS1_EEE11__recommendB7v160006Em, symObjAddr: 0x96C8, symBinAddr: 0x10000D020, symSize: 0xB4 }
  - { offsetInCU: 0x1E7B6, offset: 0x1E7B6, size: 0x8, addend: 0x0, symName: __ZNSt3__114__split_bufferI6RecordRNS_9allocatorIS1_EEEC1EmmS4_, symObjAddr: 0x977C, symBinAddr: 0x10000D0D4, symSize: 0x44 }
  - { offsetInCU: 0x1E80C, offset: 0x1E80C, size: 0x8, addend: 0x0, symName: __ZNSt3__114__split_bufferI6RecordRNS_9allocatorIS1_EEED1Ev, symObjAddr: 0x98D8, symBinAddr: 0x10000D230, symSize: 0x2C }
  - { offsetInCU: 0x1E838, offset: 0x1E838, size: 0x8, addend: 0x0, symName: __ZNKSt3__16vectorI6RecordNS_9allocatorIS1_EEE8max_sizeEv, symObjAddr: 0x9904, symBinAddr: 0x10000D25C, symSize: 0x60 }
  - { offsetInCU: 0x1E860, offset: 0x1E860, size: 0x8, addend: 0x0, symName: __ZNKSt3__16vectorI6RecordNS_9allocatorIS1_EEE20__throw_length_errorB7v160006Ev, symObjAddr: 0x9964, symBinAddr: 0x10000D2BC, symSize: 0x1C }
  - { offsetInCU: 0x1E890, offset: 0x1E890, size: 0x8, addend: 0x0, symName: __ZNSt3__116allocator_traitsINS_9allocatorI6RecordEEE8max_sizeB7v160006IS3_vEEmRKS3_, symObjAddr: 0x9980, symBinAddr: 0x10000D2D8, symSize: 0x24 }
  - { offsetInCU: 0x1E8BE, offset: 0x1E8BE, size: 0x8, addend: 0x0, symName: __ZNKSt3__16vectorI6RecordNS_9allocatorIS1_EEE7__allocB7v160006Ev, symObjAddr: 0x99A4, symBinAddr: 0x10000D2FC, symSize: 0x28 }
  - { offsetInCU: 0x1E8E4, offset: 0x1E8E4, size: 0x8, addend: 0x0, symName: __ZNKSt3__19allocatorI6RecordE8max_sizeB7v160006Ev, symObjAddr: 0x99CC, symBinAddr: 0x10000D324, symSize: 0x18 }
  - { offsetInCU: 0x1E90A, offset: 0x1E90A, size: 0x8, addend: 0x0, symName: __ZNKSt3__117__compressed_pairIP6RecordNS_9allocatorIS1_EEE6secondB7v160006Ev, symObjAddr: 0x99E4, symBinAddr: 0x10000D33C, symSize: 0x24 }
  - { offsetInCU: 0x1E930, offset: 0x1E930, size: 0x8, addend: 0x0, symName: __ZNKSt3__122__compressed_pair_elemINS_9allocatorI6RecordEELi1ELb1EE5__getB7v160006Ev, symObjAddr: 0x9A08, symBinAddr: 0x10000D360, symSize: 0x14 }
  - { offsetInCU: 0x1E956, offset: 0x1E956, size: 0x8, addend: 0x0, symName: __ZNSt3__114__split_bufferI6RecordRNS_9allocatorIS1_EEEC2EmmS4_, symObjAddr: 0x9A1C, symBinAddr: 0x10000D374, symSize: 0xE0 }
  - { offsetInCU: 0x1E9C9, offset: 0x1E9C9, size: 0x8, addend: 0x0, symName: __ZNSt3__117__compressed_pairIP6RecordRNS_9allocatorIS1_EEEC1B7v160006IDnS5_EEOT_OT0_, symObjAddr: 0x9AFC, symBinAddr: 0x10000D454, symSize: 0x3C }
  - { offsetInCU: 0x1EA21, offset: 0x1EA21, size: 0x8, addend: 0x0, symName: __ZNSt3__114__split_bufferI6RecordRNS_9allocatorIS1_EEE7__allocB7v160006Ev, symObjAddr: 0x9B78, symBinAddr: 0x10000D4D0, symSize: 0x28 }
  - { offsetInCU: 0x1EA47, offset: 0x1EA47, size: 0x8, addend: 0x0, symName: __ZNSt3__114__split_bufferI6RecordRNS_9allocatorIS1_EEE9__end_capB7v160006Ev, symObjAddr: 0x9BA0, symBinAddr: 0x10000D4F8, symSize: 0x28 }
  - { offsetInCU: 0x1EA6D, offset: 0x1EA6D, size: 0x8, addend: 0x0, symName: __ZNSt3__117__compressed_pairIP6RecordRNS_9allocatorIS1_EEEC2B7v160006IDnS5_EEOT_OT0_, symObjAddr: 0x9BC8, symBinAddr: 0x10000D520, symSize: 0x48 }
  - { offsetInCU: 0x1EAC5, offset: 0x1EAC5, size: 0x8, addend: 0x0, symName: __ZNSt3__122__compressed_pair_elemIRNS_9allocatorI6RecordEELi1ELb0EEC2B7v160006IS4_vEEOT_, symObjAddr: 0x9C10, symBinAddr: 0x10000D568, symSize: 0x20 }
  - { offsetInCU: 0x1EB07, offset: 0x1EB07, size: 0x8, addend: 0x0, symName: __ZNSt3__19allocatorI6RecordE8allocateB7v160006Em, symObjAddr: 0x9C30, symBinAddr: 0x10000D588, symSize: 0x5C }
  - { offsetInCU: 0x1EB3B, offset: 0x1EB3B, size: 0x8, addend: 0x0, symName: __ZNSt3__117__compressed_pairIP6RecordRNS_9allocatorIS1_EEE6secondB7v160006Ev, symObjAddr: 0x9C8C, symBinAddr: 0x10000D5E4, symSize: 0x28 }
  - { offsetInCU: 0x1EB61, offset: 0x1EB61, size: 0x8, addend: 0x0, symName: __ZNSt3__122__compressed_pair_elemIRNS_9allocatorI6RecordEELi1ELb0EE5__getB7v160006Ev, symObjAddr: 0x9CB4, symBinAddr: 0x10000D60C, symSize: 0x18 }
  - { offsetInCU: 0x1EB87, offset: 0x1EB87, size: 0x8, addend: 0x0, symName: __ZNSt3__117__compressed_pairIP6RecordRNS_9allocatorIS1_EEE5firstB7v160006Ev, symObjAddr: 0x9CCC, symBinAddr: 0x10000D624, symSize: 0x24 }
  - { offsetInCU: 0x1EBAD, offset: 0x1EBAD, size: 0x8, addend: 0x0, symName: __ZNSt3__116reverse_iteratorIP6RecordEC1B7v160006ES2_, symObjAddr: 0x9D68, symBinAddr: 0x10000D6C0, symSize: 0x34 }
  - { offsetInCU: 0x1EBE5, offset: 0x1EBE5, size: 0x8, addend: 0x0, symName: __ZNKSt3__116reverse_iteratorIP6RecordE4baseB7v160006Ev, symObjAddr: 0x9D9C, symBinAddr: 0x10000D6F4, symSize: 0x18 }
  - { offsetInCU: 0x1EC0B, offset: 0x1EC0B, size: 0x8, addend: 0x0, symName: __ZNKSt3__16vectorI6RecordNS_9allocatorIS1_EEE14__annotate_newB7v160006Em, symObjAddr: 0x9DF0, symBinAddr: 0x10000D748, symSize: 0xC8 }
  - { offsetInCU: 0x1EC64, offset: 0x1EC64, size: 0x8, addend: 0x0, symName: __ZNKSt3__111__move_loopINS_17_ClassicAlgPolicyEEclB7v160006INS_16reverse_iteratorIP6RecordEES7_S7_EENS_4pairIT_T1_EES9_T0_SA_, symObjAddr: 0xA1B8, symBinAddr: 0x10000DB10, symSize: 0x9C }
  - { offsetInCU: 0x1ECD5, offset: 0x1ECD5, size: 0x8, addend: 0x0, symName: __ZNSt3__18_IterOpsINS_17_ClassicAlgPolicyEE11__iter_moveB7v160006IRNS_16reverse_iteratorIP6RecordEEEENS_9enable_ifIXsr12is_referenceIDTdeclsr3stdE7declvalIRT_EEEEE5valueEDTclsr3stdE4movedeclsr3stdE7declvalISB_EEEEE4typeEOSA_, symObjAddr: 0xA3E8, symBinAddr: 0x10000DD40, symSize: 0x28 }
  - { offsetInCU: 0x1ED01, offset: 0x1ED01, size: 0x8, addend: 0x0, symName: __ZNKSt3__116reverse_iteratorIP6RecordEdeB7v160006Ev, symObjAddr: 0xA410, symBinAddr: 0x10000DD68, symSize: 0x28 }
  - { offsetInCU: 0x1ED35, offset: 0x1ED35, size: 0x8, addend: 0x0, symName: __ZNSt3__116reverse_iteratorIP6RecordEppB7v160006Ev, symObjAddr: 0xA438, symBinAddr: 0x10000DD90, symSize: 0x20 }
  - { offsetInCU: 0x1ED5B, offset: 0x1ED5B, size: 0x8, addend: 0x0, symName: __ZNSt3__18_IterOpsINS_17_ClassicAlgPolicyEE25__validate_iter_referenceB7v160006IRNS_16reverse_iteratorIP6RecordEEEEvv, symObjAddr: 0xA458, symBinAddr: 0x10000DDB0, symSize: 0x4 }
  - { offsetInCU: 0x1ED79, offset: 0x1ED79, size: 0x8, addend: 0x0, symName: __ZNSt3__118__unwrap_iter_implINS_16reverse_iteratorIP6RecordEELb0EE8__unwrapB7v160006ES4_, symObjAddr: 0xA45C, symBinAddr: 0x10000DDB4, symSize: 0x24 }
  - { offsetInCU: 0x1EDA2, offset: 0x1EDA2, size: 0x8, addend: 0x0, symName: __ZNSt3__14pairINS_16reverse_iteratorIP6RecordEES4_EC1B7v160006IS4_S4_LPv0EEEOT_OT0_, symObjAddr: 0xA480, symBinAddr: 0x10000DDD8, symSize: 0x3C }
  - { offsetInCU: 0x1EE00, offset: 0x1EE00, size: 0x8, addend: 0x0, symName: __ZNSt3__14pairINS_16reverse_iteratorIP6RecordEES4_EC2B7v160006IS4_S4_LPv0EEEOT_OT0_, symObjAddr: 0xA4BC, symBinAddr: 0x10000DE14, symSize: 0x34 }
  - { offsetInCU: 0x1EE5E, offset: 0x1EE5E, size: 0x8, addend: 0x0, symName: __ZNSt3__118__unwrap_iter_implINS_16reverse_iteratorIP6RecordEELb0EE8__rewrapB7v160006ES4_S4_, symObjAddr: 0xA4F0, symBinAddr: 0x10000DE48, symSize: 0x2C }
  - { offsetInCU: 0x1EE8B, offset: 0x1EE8B, size: 0x8, addend: 0x0, symName: __ZNSt3__116reverse_iteratorIP6RecordEC2B7v160006ES2_, symObjAddr: 0xA51C, symBinAddr: 0x10000DE74, symSize: 0x28 }
  - { offsetInCU: 0x1EEC3, offset: 0x1EEC3, size: 0x8, addend: 0x0, symName: __ZNSt3__114__split_bufferI6RecordRNS_9allocatorIS1_EEED2Ev, symObjAddr: 0xA544, symBinAddr: 0x10000DE9C, symSize: 0x8C }
  - { offsetInCU: 0x1EEEF, offset: 0x1EEEF, size: 0x8, addend: 0x0, symName: __ZNSt3__114__split_bufferI6RecordRNS_9allocatorIS1_EEE5clearB7v160006Ev, symObjAddr: 0xA5D0, symBinAddr: 0x10000DF28, symSize: 0x28 }
  - { offsetInCU: 0x1EF15, offset: 0x1EF15, size: 0x8, addend: 0x0, symName: __ZNKSt3__114__split_bufferI6RecordRNS_9allocatorIS1_EEE8capacityB7v160006Ev, symObjAddr: 0xA5F8, symBinAddr: 0x10000DF50, symSize: 0x40 }
  - { offsetInCU: 0x1EF3B, offset: 0x1EF3B, size: 0x8, addend: 0x0, symName: __ZNSt3__114__split_bufferI6RecordRNS_9allocatorIS1_EEE17__destruct_at_endB7v160006EPS1_, symObjAddr: 0xA638, symBinAddr: 0x10000DF90, symSize: 0x2C }
  - { offsetInCU: 0x1EF6F, offset: 0x1EF6F, size: 0x8, addend: 0x0, symName: __ZNSt3__114__split_bufferI6RecordRNS_9allocatorIS1_EEE17__destruct_at_endB7v160006EPS1_NS_17integral_constantIbLb0EEE, symObjAddr: 0xA664, symBinAddr: 0x10000DFBC, symSize: 0x80 }
  - { offsetInCU: 0x1EFAF, offset: 0x1EFAF, size: 0x8, addend: 0x0, symName: __ZNKSt3__114__split_bufferI6RecordRNS_9allocatorIS1_EEE9__end_capB7v160006Ev, symObjAddr: 0xA6E4, symBinAddr: 0x10000E03C, symSize: 0x28 }
  - { offsetInCU: 0x1EFD5, offset: 0x1EFD5, size: 0x8, addend: 0x0, symName: __ZNKSt3__117__compressed_pairIP6RecordRNS_9allocatorIS1_EEE5firstB7v160006Ev, symObjAddr: 0xA70C, symBinAddr: 0x10000E064, symSize: 0x24 }
  - { offsetInCU: 0x1EFFB, offset: 0x1EFFB, size: 0x8, addend: 0x0, symName: __ZNSt3__16vectorI6RecordNS_9allocatorIS1_EEE11__make_iterB7v160006EPS1_, symObjAddr: 0xA730, symBinAddr: 0x10000E088, symSize: 0x34 }
  - { offsetInCU: 0x1F030, offset: 0x1F030, size: 0x8, addend: 0x0, symName: __ZNSt3__111__wrap_iterIP6RecordEC1B7v160006EPKvS2_, symObjAddr: 0xA764, symBinAddr: 0x10000E0BC, symSize: 0x3C }
  - { offsetInCU: 0x1F076, offset: 0x1F076, size: 0x8, addend: 0x0, symName: __ZNSt3__111__wrap_iterIP6RecordEC2B7v160006EPKvS2_, symObjAddr: 0xA7A0, symBinAddr: 0x10000E0F8, symSize: 0x24 }
  - { offsetInCU: 0x1F0D7, offset: 0x1F0D7, size: 0x8, addend: 0x0, symName: __ZNSt3__116_UnwrapAlgPolicyIRPFbRK6RecordS3_EE10__get_compB7v160006ES6_, symObjAddr: 0xA944, symBinAddr: 0x10000E29C, symSize: 0x14 }
  - { offsetInCU: 0x1F0FA, offset: 0x1F0FA, size: 0x8, addend: 0x0, symName: __ZNSt3__18_IterOpsINS_17_ClassicAlgPolicyEE9iter_swapB7v160006IRP6RecordS6_EEvOT_OT0_, symObjAddr: 0xB084, symBinAddr: 0x10000E9DC, symSize: 0x34 }
  - { offsetInCU: 0x1F13D, offset: 0x1F13D, size: 0x8, addend: 0x0, symName: __ZNSt3__18_IterOpsINS_17_ClassicAlgPolicyEE11__iter_moveB7v160006IRP6RecordEENS_9enable_ifIXsr12is_referenceIDTdeclsr3stdE7declvalIRT_EEEEE5valueEDTclsr3stdE4movedeclsr3stdE7declvalIS9_EEEEE4typeEOS8_, symObjAddr: 0xB9D8, symBinAddr: 0x10000F330, symSize: 0x28 }
  - { offsetInCU: 0x1F169, offset: 0x1F169, size: 0x8, addend: 0x0, symName: __ZNSt3__18_IterOpsINS_17_ClassicAlgPolicyEE25__validate_iter_referenceB7v160006IRP6RecordEEvv, symObjAddr: 0xBA00, symBinAddr: 0x10000F358, symSize: 0x4 }
  - { offsetInCU: 0x1F187, offset: 0x1F187, size: 0x8, addend: 0x0, symName: __ZNSt3__18_IterOpsINS_17_ClassicAlgPolicyEE4nextB7v160006IP6RecordEET_S6_S6_, symObjAddr: 0xBA04, symBinAddr: 0x10000F35C, symSize: 0x18 }
  - { offsetInCU: 0x1F1BD, offset: 0x1F1BD, size: 0x8, addend: 0x0, symName: __ZNSt3__118__unwrap_iter_implINS_11__wrap_iterIP6RecordEELb1EE8__unwrapB7v160006ES4_, symObjAddr: 0xC36C, symBinAddr: 0x10000FCC4, symSize: 0x28 }
  - { offsetInCU: 0x1F1EA, offset: 0x1F1EA, size: 0x8, addend: 0x0, symName: __ZNSt3__119__to_address_helperINS_11__wrap_iterIP6RecordEEvE6__callB7v160006ERKS4_, symObjAddr: 0xC3B8, symBinAddr: 0x10000FD10, symSize: 0x30 }
  - { offsetInCU: 0x1F20D, offset: 0x1F20D, size: 0x8, addend: 0x0, symName: __ZNSt3__114pointer_traitsINS_11__wrap_iterIP6RecordEEE10to_addressB7v160006ES4_, symObjAddr: 0xC3E8, symBinAddr: 0x10000FD40, symSize: 0x2C }
  - { offsetInCU: 0x1F231, offset: 0x1F231, size: 0x8, addend: 0x0, symName: __ZNSt3__16vectorI6RecordNS_9allocatorIS1_EEE13__move_assignERS4_NS_17integral_constantIbLb1EEE, symObjAddr: 0xC414, symBinAddr: 0x10000FD6C, symSize: 0xAC }
  - { offsetInCU: 0x1F273, offset: 0x1F273, size: 0x8, addend: 0x0, symName: __ZNSt3__16vectorI6RecordNS_9allocatorIS1_EEE13__vdeallocateEv, symObjAddr: 0xC4C0, symBinAddr: 0x10000FE18, symSize: 0x8C }
  - { offsetInCU: 0x1F29B, offset: 0x1F29B, size: 0x8, addend: 0x0, symName: __ZNSt3__16vectorI6RecordNS_9allocatorIS1_EEE19__move_assign_allocB7v160006ERS4_, symObjAddr: 0xC54C, symBinAddr: 0x10000FEA4, symSize: 0x2C }
  - { offsetInCU: 0x1F2D0, offset: 0x1F2D0, size: 0x8, addend: 0x0, symName: __ZNSt3__16vectorI6RecordNS_9allocatorIS1_EEE5clearB7v160006Ev, symObjAddr: 0xC58C, symBinAddr: 0x10000FEE4, symSize: 0x4C }
  - { offsetInCU: 0x1F305, offset: 0x1F305, size: 0x8, addend: 0x0, symName: __ZNKSt3__16vectorI6RecordNS_9allocatorIS1_EEE17__annotate_shrinkB7v160006Em, symObjAddr: 0xC5D8, symBinAddr: 0x10000FF30, symSize: 0xD0 }
  - { offsetInCU: 0x1F33A, offset: 0x1F33A, size: 0x8, addend: 0x0, symName: __ZNSt3__16vectorI6RecordNS_9allocatorIS1_EEE19__move_assign_allocB7v160006ERS4_NS_17integral_constantIbLb1EEE, symObjAddr: 0xC6A8, symBinAddr: 0x100010000, symSize: 0x38 }
  - { offsetInCU: 0x1F37A, offset: 0x1F37A, size: 0x8, addend: 0x0, symName: __ZNSt3__16__treeINS_12__value_typeIfNS_6vectorI7AddressNS_9allocatorIS3_EEEEEENS_19__map_value_compareIfS7_NS_4lessIfEELb1EEENS4_IS7_EEE4findIfEENS_15__tree_iteratorIS7_PNS_11__tree_nodeIS7_PvEElEERKT_, symObjAddr: 0xC6E0, symBinAddr: 0x100010038, symSize: 0xF8 }
  - { offsetInCU: 0x1F3C9, offset: 0x1F3C9, size: 0x8, addend: 0x0, symName: __ZNSt3__114__map_iteratorINS_15__tree_iteratorINS_12__value_typeIfNS_6vectorI7AddressNS_9allocatorIS4_EEEEEEPNS_11__tree_nodeIS8_PvEElEEEC1B7v160006ESD_, symObjAddr: 0xC7D8, symBinAddr: 0x100010130, symSize: 0x34 }
  - { offsetInCU: 0x1F402, offset: 0x1F402, size: 0x8, addend: 0x0, symName: __ZNSt3__16__treeINS_12__value_typeIfNS_6vectorI7AddressNS_9allocatorIS3_EEEEEENS_19__map_value_compareIfS7_NS_4lessIfEELb1EEENS4_IS7_EEE13__lower_boundIfEENS_15__tree_iteratorIS7_PNS_11__tree_nodeIS7_PvEElEERKT_SJ_PNS_15__tree_end_nodeIPNS_16__tree_node_baseISH_EEEE, symObjAddr: 0xC80C, symBinAddr: 0x100010164, symSize: 0xA4 }
  - { offsetInCU: 0x1F460, offset: 0x1F460, size: 0x8, addend: 0x0, symName: __ZNSt3__16__treeINS_12__value_typeIfNS_6vectorI7AddressNS_9allocatorIS3_EEEEEENS_19__map_value_compareIfS7_NS_4lessIfEELb1EEENS4_IS7_EEE3endB7v160006Ev, symObjAddr: 0xC8E4, symBinAddr: 0x10001023C, symSize: 0x34 }
  - { offsetInCU: 0x1F486, offset: 0x1F486, size: 0x8, addend: 0x0, symName: __ZNSt3__16__treeINS_12__value_typeIfNS_6vectorI7AddressNS_9allocatorIS3_EEEEEENS_19__map_value_compareIfS7_NS_4lessIfEELb1EEENS4_IS7_EEE10value_compB7v160006Ev, symObjAddr: 0xC918, symBinAddr: 0x100010270, symSize: 0x28 }
  - { offsetInCU: 0x1F4AC, offset: 0x1F4AC, size: 0x8, addend: 0x0, symName: __ZNKSt3__119__map_value_compareIfNS_12__value_typeIfNS_6vectorI7AddressNS_9allocatorIS3_EEEEEENS_4lessIfEELb1EEclB7v160006ERKfRKS7_, symObjAddr: 0xC940, symBinAddr: 0x100010298, symSize: 0x50 }
  - { offsetInCU: 0x1F4F0, offset: 0x1F4F0, size: 0x8, addend: 0x0, symName: __ZNKSt3__115__tree_iteratorINS_12__value_typeIfNS_6vectorI7AddressNS_9allocatorIS3_EEEEEEPNS_11__tree_nodeIS7_PvEElEdeB7v160006Ev, symObjAddr: 0xC990, symBinAddr: 0x1000102E8, symSize: 0x28 }
  - { offsetInCU: 0x1F516, offset: 0x1F516, size: 0x8, addend: 0x0, symName: __ZNKSt3__119__map_value_compareIfNS_12__value_typeIfNS_6vectorI7AddressNS_9allocatorIS3_EEEEEENS_4lessIfEELb1EEclB7v160006ERKS7_RKf, symObjAddr: 0xC9B8, symBinAddr: 0x100010310, symSize: 0x48 }
  - { offsetInCU: 0x1F55A, offset: 0x1F55A, size: 0x8, addend: 0x0, symName: __ZNSt3__115__tree_iteratorINS_12__value_typeIfNS_6vectorI7AddressNS_9allocatorIS3_EEEEEEPNS_11__tree_nodeIS7_PvEElEC1B7v160006EPNS_15__tree_end_nodeIPNS_16__tree_node_baseIS9_EEEE, symObjAddr: 0xCA00, symBinAddr: 0x100010358, symSize: 0x34 }
  - { offsetInCU: 0x1F593, offset: 0x1F593, size: 0x8, addend: 0x0, symName: __ZNKSt3__14lessIfEclB7v160006ERKfS3_, symObjAddr: 0xCA34, symBinAddr: 0x10001038C, symSize: 0x34 }
  - { offsetInCU: 0x1F5D7, offset: 0x1F5D7, size: 0x8, addend: 0x0, symName: __ZNKSt3__112__value_typeIfNS_6vectorI7AddressNS_9allocatorIS2_EEEEE11__get_valueB7v160006Ev, symObjAddr: 0xCA68, symBinAddr: 0x1000103C0, symSize: 0x14 }
  - { offsetInCU: 0x1F5FD, offset: 0x1F5FD, size: 0x8, addend: 0x0, symName: __ZNSt3__115__tree_iteratorINS_12__value_typeIfNS_6vectorI7AddressNS_9allocatorIS3_EEEEEEPNS_11__tree_nodeIS7_PvEElEC2B7v160006EPNS_15__tree_end_nodeIPNS_16__tree_node_baseIS9_EEEE, symObjAddr: 0xCA7C, symBinAddr: 0x1000103D4, symSize: 0x20 }
  - { offsetInCU: 0x1F636, offset: 0x1F636, size: 0x8, addend: 0x0, symName: __ZNSt3__117__compressed_pairImNS_19__map_value_compareIfNS_12__value_typeIfNS_6vectorI7AddressNS_9allocatorIS4_EEEEEENS_4lessIfEELb1EEEE6secondB7v160006Ev, symObjAddr: 0xCACC, symBinAddr: 0x100010424, symSize: 0x24 }
  - { offsetInCU: 0x1F65C, offset: 0x1F65C, size: 0x8, addend: 0x0, symName: __ZNSt3__122__compressed_pair_elemINS_19__map_value_compareIfNS_12__value_typeIfNS_6vectorI7AddressNS_9allocatorIS4_EEEEEENS_4lessIfEELb1EEELi1ELb1EE5__getB7v160006Ev, symObjAddr: 0xCAF0, symBinAddr: 0x100010448, symSize: 0x14 }
  - { offsetInCU: 0x1F682, offset: 0x1F682, size: 0x8, addend: 0x0, symName: __ZNKSt3__115__tree_iteratorINS_12__value_typeIfNS_6vectorI7AddressNS_9allocatorIS3_EEEEEEPNS_11__tree_nodeIS7_PvEElE8__get_npB7v160006Ev, symObjAddr: 0xCB04, symBinAddr: 0x10001045C, symSize: 0x18 }
  - { offsetInCU: 0x1F6A8, offset: 0x1F6A8, size: 0x8, addend: 0x0, symName: __ZNSt3__114__map_iteratorINS_15__tree_iteratorINS_12__value_typeIfNS_6vectorI7AddressNS_9allocatorIS4_EEEEEEPNS_11__tree_nodeIS8_PvEElEEEC2B7v160006ESD_, symObjAddr: 0xCB1C, symBinAddr: 0x100010474, symSize: 0x20 }
  - { offsetInCU: 0x1F6E1, offset: 0x1F6E1, size: 0x8, addend: 0x0, symName: __ZNSt3__16vectorI7AddressNS_9allocatorIS1_EEEC2B7v160006Ev, symObjAddr: 0xCB3C, symBinAddr: 0x100010494, symSize: 0x54 }
  - { offsetInCU: 0x1F70B, offset: 0x1F70B, size: 0x8, addend: 0x0, symName: __ZNSt3__117__compressed_pairIP7AddressNS_9allocatorIS1_EEEC1B7v160006IDnNS_18__default_init_tagEEEOT_OT0_, symObjAddr: 0xCB90, symBinAddr: 0x1000104E8, symSize: 0x3C }
  - { offsetInCU: 0x1F763, offset: 0x1F763, size: 0x8, addend: 0x0, symName: __ZNSt3__117__compressed_pairIP7AddressNS_9allocatorIS1_EEEC2B7v160006IDnNS_18__default_init_tagEEEOT_OT0_, symObjAddr: 0xCBCC, symBinAddr: 0x100010524, symSize: 0x40 }
  - { offsetInCU: 0x1F7BB, offset: 0x1F7BB, size: 0x8, addend: 0x0, symName: __ZNSt3__122__compressed_pair_elemINS_9allocatorI7AddressEELi1ELb1EEC2B7v160006ENS_18__default_init_tagE, symObjAddr: 0xCC0C, symBinAddr: 0x100010564, symSize: 0x2C }
  - { offsetInCU: 0x1F7EF, offset: 0x1F7EF, size: 0x8, addend: 0x0, symName: __ZNSt3__19allocatorI7AddressEC2B7v160006Ev, symObjAddr: 0xCC38, symBinAddr: 0x100010590, symSize: 0x2C }
  - { offsetInCU: 0x1F819, offset: 0x1F819, size: 0x8, addend: 0x0, symName: __ZNSt3__116__non_trivial_ifILb1ENS_9allocatorI7AddressEEEC2B7v160006Ev, symObjAddr: 0xCC64, symBinAddr: 0x1000105BC, symSize: 0x14 }
  - { offsetInCU: 0x1F843, offset: 0x1F843, size: 0x8, addend: 0x0, symName: __ZNSt3__16vectorI7AddressNS_9allocatorIS1_EEED2B7v160006Ev, symObjAddr: 0xCC78, symBinAddr: 0x1000105D0, symSize: 0x44 }
  - { offsetInCU: 0x1F873, offset: 0x1F873, size: 0x8, addend: 0x0, symName: __ZNSt3__16vectorI7AddressNS_9allocatorIS1_EEE22__construct_one_at_endB7v160006IJS1_EEEvDpOT_, symObjAddr: 0xCCBC, symBinAddr: 0x100010614, symSize: 0x90 }
  - { offsetInCU: 0x1F8C2, offset: 0x1F8C2, size: 0x8, addend: 0x0, symName: __ZNSt3__16vectorI7AddressNS_9allocatorIS1_EEE21__push_back_slow_pathIS1_EEvOT_, symObjAddr: 0xCD4C, symBinAddr: 0x1000106A4, symSize: 0xD8 }
  - { offsetInCU: 0x1F920, offset: 0x1F920, size: 0x8, addend: 0x0, symName: __ZNSt3__116allocator_traitsINS_9allocatorI7AddressEEE9constructB7v160006IS2_JS2_EvEEvRS3_PT_DpOT0_, symObjAddr: 0xCE24, symBinAddr: 0x10001077C, symSize: 0x34 }
  - { offsetInCU: 0x1F977, offset: 0x1F977, size: 0x8, addend: 0x0, symName: __ZNSt3__19allocatorI7AddressE9constructB7v160006IS1_JS1_EEEvPT_DpOT0_, symObjAddr: 0xCE58, symBinAddr: 0x1000107B0, symSize: 0x28 }
  - { offsetInCU: 0x1F9CD, offset: 0x1F9CD, size: 0x8, addend: 0x0, symName: __ZNSt3__114__split_bufferI7AddressRNS_9allocatorIS1_EEEC1EmmS4_, symObjAddr: 0xCE80, symBinAddr: 0x1000107D8, symSize: 0x44 }
  - { offsetInCU: 0x1FA23, offset: 0x1FA23, size: 0x8, addend: 0x0, symName: __ZNSt3__114__split_bufferI7AddressRNS_9allocatorIS1_EEED1Ev, symObjAddr: 0xCFDC, symBinAddr: 0x100010934, symSize: 0x2C }
  - { offsetInCU: 0x1FA4F, offset: 0x1FA4F, size: 0x8, addend: 0x0, symName: __ZNSt3__114__split_bufferI7AddressRNS_9allocatorIS1_EEEC2EmmS4_, symObjAddr: 0xD008, symBinAddr: 0x100010960, symSize: 0xD4 }
  - { offsetInCU: 0x1FAC2, offset: 0x1FAC2, size: 0x8, addend: 0x0, symName: __ZNSt3__117__compressed_pairIP7AddressRNS_9allocatorIS1_EEEC1B7v160006IDnS5_EEOT_OT0_, symObjAddr: 0xD0DC, symBinAddr: 0x100010A34, symSize: 0x3C }
  - { offsetInCU: 0x1FB1A, offset: 0x1FB1A, size: 0x8, addend: 0x0, symName: __ZNSt3__114__split_bufferI7AddressRNS_9allocatorIS1_EEE7__allocB7v160006Ev, symObjAddr: 0xD118, symBinAddr: 0x100010A70, symSize: 0x28 }
  - { offsetInCU: 0x1FB40, offset: 0x1FB40, size: 0x8, addend: 0x0, symName: __ZNSt3__114__split_bufferI7AddressRNS_9allocatorIS1_EEE9__end_capB7v160006Ev, symObjAddr: 0xD140, symBinAddr: 0x100010A98, symSize: 0x28 }
  - { offsetInCU: 0x1FB66, offset: 0x1FB66, size: 0x8, addend: 0x0, symName: __ZNSt3__117__compressed_pairIP7AddressRNS_9allocatorIS1_EEEC2B7v160006IDnS5_EEOT_OT0_, symObjAddr: 0xD168, symBinAddr: 0x100010AC0, symSize: 0x48 }
  - { offsetInCU: 0x1FBBE, offset: 0x1FBBE, size: 0x8, addend: 0x0, symName: __ZNSt3__122__compressed_pair_elemIRNS_9allocatorI7AddressEELi1ELb0EEC2B7v160006IS4_vEEOT_, symObjAddr: 0xD1B0, symBinAddr: 0x100010B08, symSize: 0x20 }
  - { offsetInCU: 0x1FC00, offset: 0x1FC00, size: 0x8, addend: 0x0, symName: __ZNSt3__117__compressed_pairIP7AddressRNS_9allocatorIS1_EEE6secondB7v160006Ev, symObjAddr: 0xD1D0, symBinAddr: 0x100010B28, symSize: 0x28 }
  - { offsetInCU: 0x1FC26, offset: 0x1FC26, size: 0x8, addend: 0x0, symName: __ZNSt3__122__compressed_pair_elemIRNS_9allocatorI7AddressEELi1ELb0EE5__getB7v160006Ev, symObjAddr: 0xD1F8, symBinAddr: 0x100010B50, symSize: 0x18 }
  - { offsetInCU: 0x1FC4C, offset: 0x1FC4C, size: 0x8, addend: 0x0, symName: __ZNSt3__117__compressed_pairIP7AddressRNS_9allocatorIS1_EEE5firstB7v160006Ev, symObjAddr: 0xD210, symBinAddr: 0x100010B68, symSize: 0x24 }
  - { offsetInCU: 0x1FC8C, offset: 0x1FC8C, size: 0x8, addend: 0x0, symName: __ZNKSt3__111__move_loopINS_17_ClassicAlgPolicyEEclB7v160006INS_16reverse_iteratorIP7AddressEES7_S7_EENS_4pairIT_T1_EES9_T0_SA_, symObjAddr: 0xD5D8, symBinAddr: 0x100010F30, symSize: 0xA8 }
  - { offsetInCU: 0x1FCF7, offset: 0x1FCF7, size: 0x8, addend: 0x0, symName: __ZNSt3__18_IterOpsINS_17_ClassicAlgPolicyEE11__iter_moveB7v160006IRNS_16reverse_iteratorIP7AddressEEEENS_9enable_ifIXsr12is_referenceIDTdeclsr3stdE7declvalIRT_EEEEE5valueEDTclsr3stdE4movedeclsr3stdE7declvalISB_EEEEE4typeEOSA_, symObjAddr: 0xD7CC, symBinAddr: 0x100011124, symSize: 0x28 }
  - { offsetInCU: 0x1FD23, offset: 0x1FD23, size: 0x8, addend: 0x0, symName: __ZNSt3__18_IterOpsINS_17_ClassicAlgPolicyEE25__validate_iter_referenceB7v160006IRNS_16reverse_iteratorIP7AddressEEEEvv, symObjAddr: 0xD7F4, symBinAddr: 0x10001114C, symSize: 0x4 }
  - { offsetInCU: 0x1FD41, offset: 0x1FD41, size: 0x8, addend: 0x0, symName: __ZNSt3__118__unwrap_iter_implINS_16reverse_iteratorIP7AddressEELb0EE8__unwrapB7v160006ES4_, symObjAddr: 0xD7F8, symBinAddr: 0x100011150, symSize: 0x24 }
  - { offsetInCU: 0x1FD6A, offset: 0x1FD6A, size: 0x8, addend: 0x0, symName: __ZNSt3__14pairINS_16reverse_iteratorIP7AddressEES4_EC1B7v160006IS4_S4_LPv0EEEOT_OT0_, symObjAddr: 0xD81C, symBinAddr: 0x100011174, symSize: 0x3C }
  - { offsetInCU: 0x1FDC8, offset: 0x1FDC8, size: 0x8, addend: 0x0, symName: __ZNSt3__14pairINS_16reverse_iteratorIP7AddressEES4_EC2B7v160006IS4_S4_LPv0EEEOT_OT0_, symObjAddr: 0xD858, symBinAddr: 0x1000111B0, symSize: 0x34 }
  - { offsetInCU: 0x1FE26, offset: 0x1FE26, size: 0x8, addend: 0x0, symName: __ZNSt3__118__unwrap_iter_implINS_16reverse_iteratorIP7AddressEELb0EE8__rewrapB7v160006ES4_S4_, symObjAddr: 0xD88C, symBinAddr: 0x1000111E4, symSize: 0x2C }
  - { offsetInCU: 0x1FE53, offset: 0x1FE53, size: 0x8, addend: 0x0, symName: __ZNSt3__114__split_bufferI7AddressRNS_9allocatorIS1_EEED2Ev, symObjAddr: 0xD8B8, symBinAddr: 0x100011210, symSize: 0x8C }
  - { offsetInCU: 0x1FE7F, offset: 0x1FE7F, size: 0x8, addend: 0x0, symName: __ZNSt3__114__split_bufferI7AddressRNS_9allocatorIS1_EEE5clearB7v160006Ev, symObjAddr: 0xD944, symBinAddr: 0x10001129C, symSize: 0x28 }
  - { offsetInCU: 0x1FEA5, offset: 0x1FEA5, size: 0x8, addend: 0x0, symName: __ZNKSt3__114__split_bufferI7AddressRNS_9allocatorIS1_EEE8capacityB7v160006Ev, symObjAddr: 0xD96C, symBinAddr: 0x1000112C4, symSize: 0x40 }
  - { offsetInCU: 0x1FECB, offset: 0x1FECB, size: 0x8, addend: 0x0, symName: __ZNSt3__114__split_bufferI7AddressRNS_9allocatorIS1_EEE17__destruct_at_endB7v160006EPS1_, symObjAddr: 0xD9AC, symBinAddr: 0x100011304, symSize: 0x2C }
  - { offsetInCU: 0x1FEFF, offset: 0x1FEFF, size: 0x8, addend: 0x0, symName: __ZNSt3__114__split_bufferI7AddressRNS_9allocatorIS1_EEE17__destruct_at_endB7v160006EPS1_NS_17integral_constantIbLb0EEE, symObjAddr: 0xD9D8, symBinAddr: 0x100011330, symSize: 0x80 }
  - { offsetInCU: 0x1FF3F, offset: 0x1FF3F, size: 0x8, addend: 0x0, symName: __ZNKSt3__114__split_bufferI7AddressRNS_9allocatorIS1_EEE9__end_capB7v160006Ev, symObjAddr: 0xDA58, symBinAddr: 0x1000113B0, symSize: 0x28 }
  - { offsetInCU: 0x1FF65, offset: 0x1FF65, size: 0x8, addend: 0x0, symName: __ZNKSt3__117__compressed_pairIP7AddressRNS_9allocatorIS1_EEE5firstB7v160006Ev, symObjAddr: 0xDA80, symBinAddr: 0x1000113D8, symSize: 0x24 }
  - { offsetInCU: 0x1FFA0, offset: 0x1FFA0, size: 0x8, addend: 0x0, symName: __ZNSt3__16__treeINS_12__value_typeIfNS_6vectorI7AddressNS_9allocatorIS3_EEEEEENS_19__map_value_compareIfS7_NS_4lessIfEELb1EEENS4_IS7_EEE25__emplace_unique_key_argsIfJRKNS_21piecewise_construct_tENS_5tupleIJRKfEEENSI_IJEEEEEENS_4pairINS_15__tree_iteratorIS7_PNS_11__tree_nodeIS7_PvEElEEbEERKT_DpOT0_, symObjAddr: 0xDAA4, symBinAddr: 0x1000113FC, symSize: 0x100 }
  - { offsetInCU: 0x20076, offset: 0x20076, size: 0x8, addend: 0x0, symName: __ZNKSt3__115__tree_iteratorINS_12__value_typeIfNS_6vectorI7AddressNS_9allocatorIS3_EEEEEEPNS_11__tree_nodeIS7_PvEElEptB7v160006Ev, symObjAddr: 0xDBD4, symBinAddr: 0x10001152C, symSize: 0x2C }
  - { offsetInCU: 0x2009C, offset: 0x2009C, size: 0x8, addend: 0x0, symName: __ZNSt3__16__treeINS_12__value_typeIfNS_6vectorI7AddressNS_9allocatorIS3_EEEEEENS_19__map_value_compareIfS7_NS_4lessIfEELb1EEENS4_IS7_EEE12__find_equalIfEERPNS_16__tree_node_baseIPvEERPNS_15__tree_end_nodeISI_EERKT_, symObjAddr: 0xDC00, symBinAddr: 0x100011558, symSize: 0x184 }
  - { offsetInCU: 0x20109, offset: 0x20109, size: 0x8, addend: 0x0, symName: __ZNSt3__16__treeINS_12__value_typeIfNS_6vectorI7AddressNS_9allocatorIS3_EEEEEENS_19__map_value_compareIfS7_NS_4lessIfEELb1EEENS4_IS7_EEE16__construct_nodeIJRKNS_21piecewise_construct_tENS_5tupleIJRKfEEENSI_IJEEEEEENS_10unique_ptrINS_11__tree_nodeIS7_PvEENS_22__tree_node_destructorINS4_ISQ_EEEEEEDpOT_, symObjAddr: 0xDD84, symBinAddr: 0x1000116DC, symSize: 0x120 }
  - { offsetInCU: 0x20192, offset: 0x20192, size: 0x8, addend: 0x0, symName: __ZNSt3__16__treeINS_12__value_typeIfNS_6vectorI7AddressNS_9allocatorIS3_EEEEEENS_19__map_value_compareIfS7_NS_4lessIfEELb1EEENS4_IS7_EEE16__insert_node_atEPNS_15__tree_end_nodeIPNS_16__tree_node_baseIPvEEEERSI_SI_, symObjAddr: 0xDEA4, symBinAddr: 0x1000117FC, symSize: 0xCC }
  - { offsetInCU: 0x201E7, offset: 0x201E7, size: 0x8, addend: 0x0, symName: __ZNKSt3__110unique_ptrINS_11__tree_nodeINS_12__value_typeIfNS_6vectorI7AddressNS_9allocatorIS4_EEEEEEPvEENS_22__tree_node_destructorINS5_ISA_EEEEE3getB7v160006Ev, symObjAddr: 0xDF70, symBinAddr: 0x1000118C8, symSize: 0x28 }
  - { offsetInCU: 0x2020D, offset: 0x2020D, size: 0x8, addend: 0x0, symName: __ZNSt3__110unique_ptrINS_11__tree_nodeINS_12__value_typeIfNS_6vectorI7AddressNS_9allocatorIS4_EEEEEEPvEENS_22__tree_node_destructorINS5_ISA_EEEEE7releaseB7v160006Ev, symObjAddr: 0xDF98, symBinAddr: 0x1000118F0, symSize: 0x44 }
  - { offsetInCU: 0x20242, offset: 0x20242, size: 0x8, addend: 0x0, symName: __ZNSt3__110unique_ptrINS_11__tree_nodeINS_12__value_typeIfNS_6vectorI7AddressNS_9allocatorIS4_EEEEEEPvEENS_22__tree_node_destructorINS5_ISA_EEEEED1B7v160006Ev, symObjAddr: 0xDFDC, symBinAddr: 0x100011934, symSize: 0x2C }
  - { offsetInCU: 0x2026C, offset: 0x2026C, size: 0x8, addend: 0x0, symName: __ZNSt3__115__tree_iteratorINS_12__value_typeIfNS_6vectorI7AddressNS_9allocatorIS3_EEEEEEPNS_11__tree_nodeIS7_PvEElEC1B7v160006ESB_, symObjAddr: 0xE008, symBinAddr: 0x100011960, symSize: 0x34 }
  - { offsetInCU: 0x202AB, offset: 0x202AB, size: 0x8, addend: 0x0, symName: __ZNSt3__14pairINS_15__tree_iteratorINS_12__value_typeIfNS_6vectorI7AddressNS_9allocatorIS4_EEEEEEPNS_11__tree_nodeIS8_PvEElEEbEC1B7v160006ISD_RbLSA_0EEEOT_OT0_, symObjAddr: 0xE03C, symBinAddr: 0x100011994, symSize: 0x3C }
  - { offsetInCU: 0x20309, offset: 0x20309, size: 0x8, addend: 0x0, symName: __ZNKSt3__16__treeINS_12__value_typeIfNS_6vectorI7AddressNS_9allocatorIS3_EEEEEENS_19__map_value_compareIfS7_NS_4lessIfEELb1EEENS4_IS7_EEE10__root_ptrEv, symObjAddr: 0xE078, symBinAddr: 0x1000119D0, symSize: 0x24 }
  - { offsetInCU: 0x2032F, offset: 0x2032F, size: 0x8, addend: 0x0, symName: __ZNSt3__116allocator_traitsINS_9allocatorINS_11__tree_nodeINS_12__value_typeIfNS_6vectorI7AddressNS1_IS5_EEEEEEPvEEEEE8allocateB7v160006ERSB_m, symObjAddr: 0xE09C, symBinAddr: 0x1000119F4, symSize: 0x2C }
  - { offsetInCU: 0x20362, offset: 0x20362, size: 0x8, addend: 0x0, symName: __ZNSt3__122__tree_node_destructorINS_9allocatorINS_11__tree_nodeINS_12__value_typeIfNS_6vectorI7AddressNS1_IS5_EEEEEEPvEEEEEC1B7v160006ERSB_b, symObjAddr: 0xE0C8, symBinAddr: 0x100011A20, symSize: 0x48 }
  - { offsetInCU: 0x203B0, offset: 0x203B0, size: 0x8, addend: 0x0, symName: __ZNSt3__110unique_ptrINS_11__tree_nodeINS_12__value_typeIfNS_6vectorI7AddressNS_9allocatorIS4_EEEEEEPvEENS_22__tree_node_destructorINS5_ISA_EEEEEC1B7v160006ILb1EvEEPSA_NS_16__dependent_typeINS_27__unique_ptr_deleter_sfinaeISD_EEXT_EE20__good_rval_ref_typeE, symObjAddr: 0xE110, symBinAddr: 0x100011A68, symSize: 0x3C }
  - { offsetInCU: 0x20401, offset: 0x20401, size: 0x8, addend: 0x0, symName: __ZNSt3__116allocator_traitsINS_9allocatorINS_11__tree_nodeINS_12__value_typeIfNS_6vectorI7AddressNS1_IS5_EEEEEEPvEEEEE9constructB7v160006INS_4pairIKfS7_EEJRKNS_21piecewise_construct_tENS_5tupleIJRSF_EEENSK_IJEEEEvEEvRSB_PT_DpOT0_, symObjAddr: 0xE14C, symBinAddr: 0x100011AA4, symSize: 0x44 }
  - { offsetInCU: 0x20480, offset: 0x20480, size: 0x8, addend: 0x0, symName: __ZNKSt3__110unique_ptrINS_11__tree_nodeINS_12__value_typeIfNS_6vectorI7AddressNS_9allocatorIS4_EEEEEEPvEENS_22__tree_node_destructorINS5_ISA_EEEEEptB7v160006Ev, symObjAddr: 0xE190, symBinAddr: 0x100011AE8, symSize: 0x28 }
  - { offsetInCU: 0x204A6, offset: 0x204A6, size: 0x8, addend: 0x0, symName: __ZNSt3__110unique_ptrINS_11__tree_nodeINS_12__value_typeIfNS_6vectorI7AddressNS_9allocatorIS4_EEEEEEPvEENS_22__tree_node_destructorINS5_ISA_EEEEE11get_deleterB7v160006Ev, symObjAddr: 0xE1B8, symBinAddr: 0x100011B10, symSize: 0x24 }
  - { offsetInCU: 0x204CC, offset: 0x204CC, size: 0x8, addend: 0x0, symName: __ZNSt3__19allocatorINS_11__tree_nodeINS_12__value_typeIfNS_6vectorI7AddressNS0_IS4_EEEEEEPvEEE8allocateB7v160006Em, symObjAddr: 0xE1DC, symBinAddr: 0x100011B34, symSize: 0x58 }
  - { offsetInCU: 0x2050A, offset: 0x2050A, size: 0x8, addend: 0x0, symName: __ZNSt3__116allocator_traitsINS_9allocatorINS_11__tree_nodeINS_12__value_typeIfNS_6vectorI7AddressNS1_IS5_EEEEEEPvEEEEE8max_sizeB7v160006ISB_vEEmRKSB_, symObjAddr: 0xE234, symBinAddr: 0x100011B8C, symSize: 0x24 }
  - { offsetInCU: 0x20538, offset: 0x20538, size: 0x8, addend: 0x0, symName: __ZNKSt3__19allocatorINS_11__tree_nodeINS_12__value_typeIfNS_6vectorI7AddressNS0_IS4_EEEEEEPvEEE8max_sizeB7v160006Ev, symObjAddr: 0xE258, symBinAddr: 0x100011BB0, symSize: 0x14 }
  - { offsetInCU: 0x2055E, offset: 0x2055E, size: 0x8, addend: 0x0, symName: __ZNSt3__122__tree_node_destructorINS_9allocatorINS_11__tree_nodeINS_12__value_typeIfNS_6vectorI7AddressNS1_IS5_EEEEEEPvEEEEEC2B7v160006ERSB_b, symObjAddr: 0xE26C, symBinAddr: 0x100011BC4, symSize: 0x38 }
  - { offsetInCU: 0x205A6, offset: 0x205A6, size: 0x8, addend: 0x0, symName: __ZNSt3__110unique_ptrINS_11__tree_nodeINS_12__value_typeIfNS_6vectorI7AddressNS_9allocatorIS4_EEEEEEPvEENS_22__tree_node_destructorINS5_ISA_EEEEEC2B7v160006ILb1EvEEPSA_NS_16__dependent_typeINS_27__unique_ptr_deleter_sfinaeISD_EEXT_EE20__good_rval_ref_typeE, symObjAddr: 0xE2A4, symBinAddr: 0x100011BFC, symSize: 0x48 }
  - { offsetInCU: 0x205F7, offset: 0x205F7, size: 0x8, addend: 0x0, symName: __ZNSt3__117__compressed_pairIPNS_11__tree_nodeINS_12__value_typeIfNS_6vectorI7AddressNS_9allocatorIS4_EEEEEEPvEENS_22__tree_node_destructorINS5_ISA_EEEEEC1B7v160006IRSB_SE_EEOT_OT0_, symObjAddr: 0xE2EC, symBinAddr: 0x100011C44, symSize: 0x3C }
  - { offsetInCU: 0x2064F, offset: 0x2064F, size: 0x8, addend: 0x0, symName: __ZNSt3__117__compressed_pairIPNS_11__tree_nodeINS_12__value_typeIfNS_6vectorI7AddressNS_9allocatorIS4_EEEEEEPvEENS_22__tree_node_destructorINS5_ISA_EEEEEC2B7v160006IRSB_SE_EEOT_OT0_, symObjAddr: 0xE328, symBinAddr: 0x100011C80, symSize: 0x48 }
  - { offsetInCU: 0x206A7, offset: 0x206A7, size: 0x8, addend: 0x0, symName: __ZNSt3__122__compressed_pair_elemIPNS_11__tree_nodeINS_12__value_typeIfNS_6vectorI7AddressNS_9allocatorIS4_EEEEEEPvEELi0ELb0EEC2B7v160006IRSB_vEEOT_, symObjAddr: 0xE370, symBinAddr: 0x100011CC8, symSize: 0x24 }
  - { offsetInCU: 0x206E9, offset: 0x206E9, size: 0x8, addend: 0x0, symName: __ZNSt3__122__compressed_pair_elemINS_22__tree_node_destructorINS_9allocatorINS_11__tree_nodeINS_12__value_typeIfNS_6vectorI7AddressNS2_IS6_EEEEEEPvEEEEEELi1ELb0EEC2B7v160006ISD_vEEOT_, symObjAddr: 0xE394, symBinAddr: 0x100011CEC, symSize: 0x24 }
  - { offsetInCU: 0x2072B, offset: 0x2072B, size: 0x8, addend: 0x0, symName: __ZNSt3__19allocatorINS_11__tree_nodeINS_12__value_typeIfNS_6vectorI7AddressNS0_IS4_EEEEEEPvEEE9constructB7v160006INS_4pairIKfS6_EEJRKNS_21piecewise_construct_tENS_5tupleIJRSD_EEENSI_IJEEEEEEvPT_DpOT0_, symObjAddr: 0xE3B8, symBinAddr: 0x100011D10, symSize: 0x44 }
  - { offsetInCU: 0x207A7, offset: 0x207A7, size: 0x8, addend: 0x0, symName: __ZNSt3__14pairIKfNS_6vectorI7AddressNS_9allocatorIS3_EEEEEC1B7v160006IJRS1_EJEEENS_21piecewise_construct_tENS_5tupleIJDpT_EEENSB_IJDpT0_EEE, symObjAddr: 0xE3FC, symBinAddr: 0x100011D54, symSize: 0x44 }
  - { offsetInCU: 0x2080E, offset: 0x2080E, size: 0x8, addend: 0x0, symName: __ZNSt3__14pairIKfNS_6vectorI7AddressNS_9allocatorIS3_EEEEEC1B7v160006IJRS1_EJEJLm0EEJEEENS_21piecewise_construct_tERNS_5tupleIJDpT_EEERNSB_IJDpT0_EEENS_15__tuple_indicesIJXspT1_EEEENSK_IJXspT2_EEEE, symObjAddr: 0xE440, symBinAddr: 0x100011D98, symSize: 0x3C }
  - { offsetInCU: 0x2089B, offset: 0x2089B, size: 0x8, addend: 0x0, symName: __ZNSt3__14pairIKfNS_6vectorI7AddressNS_9allocatorIS3_EEEEEC2B7v160006IJRS1_EJEJLm0EEJEEENS_21piecewise_construct_tERNS_5tupleIJDpT_EEERNSB_IJDpT0_EEENS_15__tuple_indicesIJXspT1_EEEENSK_IJXspT2_EEEE, symObjAddr: 0xE47C, symBinAddr: 0x100011DD4, symSize: 0x4C }
  - { offsetInCU: 0x20928, offset: 0x20928, size: 0x8, addend: 0x0, symName: __ZNSt3__112__tuple_leafILm0ERKfLb0EE3getB7v160006Ev, symObjAddr: 0xE4EC, symBinAddr: 0x100011E44, symSize: 0x18 }
  - { offsetInCU: 0x2094E, offset: 0x2094E, size: 0x8, addend: 0x0, symName: __ZNKSt3__117__compressed_pairIPNS_11__tree_nodeINS_12__value_typeIfNS_6vectorI7AddressNS_9allocatorIS4_EEEEEEPvEENS_22__tree_node_destructorINS5_ISA_EEEEE5firstB7v160006Ev, symObjAddr: 0xE504, symBinAddr: 0x100011E5C, symSize: 0x24 }
  - { offsetInCU: 0x20974, offset: 0x20974, size: 0x8, addend: 0x0, symName: __ZNKSt3__122__compressed_pair_elemIPNS_11__tree_nodeINS_12__value_typeIfNS_6vectorI7AddressNS_9allocatorIS4_EEEEEEPvEELi0ELb0EE5__getB7v160006Ev, symObjAddr: 0xE528, symBinAddr: 0x100011E80, symSize: 0x14 }
  - { offsetInCU: 0x2099A, offset: 0x2099A, size: 0x8, addend: 0x0, symName: __ZNSt3__117__compressed_pairIPNS_11__tree_nodeINS_12__value_typeIfNS_6vectorI7AddressNS_9allocatorIS4_EEEEEEPvEENS_22__tree_node_destructorINS5_ISA_EEEEE6secondB7v160006Ev, symObjAddr: 0xE53C, symBinAddr: 0x100011E94, symSize: 0x28 }
  - { offsetInCU: 0x209C0, offset: 0x209C0, size: 0x8, addend: 0x0, symName: __ZNSt3__122__compressed_pair_elemINS_22__tree_node_destructorINS_9allocatorINS_11__tree_nodeINS_12__value_typeIfNS_6vectorI7AddressNS2_IS6_EEEEEEPvEEEEEELi1ELb0EE5__getB7v160006Ev, symObjAddr: 0xE564, symBinAddr: 0x100011EBC, symSize: 0x14 }
  - { offsetInCU: 0x209E6, offset: 0x209E6, size: 0x8, addend: 0x0, symName: __ZNSt3__16__treeINS_12__value_typeIfNS_6vectorI7AddressNS_9allocatorIS3_EEEEEENS_19__map_value_compareIfS7_NS_4lessIfEELb1EEENS4_IS7_EEE4sizeB7v160006Ev, symObjAddr: 0xE8A4, symBinAddr: 0x1000121FC, symSize: 0x28 }
  - { offsetInCU: 0x20A0C, offset: 0x20A0C, size: 0x8, addend: 0x0, symName: __ZNKSt3__116__tree_node_baseIPvE15__parent_unsafeB7v160006Ev, symObjAddr: 0xE8CC, symBinAddr: 0x100012224, symSize: 0x18 }
  - { offsetInCU: 0x20A32, offset: 0x20A32, size: 0x8, addend: 0x0, symName: __ZNSt3__116__tree_node_baseIPvE12__set_parentB7v160006EPS2_, symObjAddr: 0xEAB4, symBinAddr: 0x10001240C, symSize: 0x20 }
  - { offsetInCU: 0x20A67, offset: 0x20A67, size: 0x8, addend: 0x0, symName: __ZNSt3__117__compressed_pairImNS_19__map_value_compareIfNS_12__value_typeIfNS_6vectorI7AddressNS_9allocatorIS4_EEEEEENS_4lessIfEELb1EEEE5firstB7v160006Ev, symObjAddr: 0xEAD4, symBinAddr: 0x10001242C, symSize: 0x24 }
  - { offsetInCU: 0x20A8D, offset: 0x20A8D, size: 0x8, addend: 0x0, symName: __ZNSt3__122__compressed_pair_elemImLi0ELb0EE5__getB7v160006Ev, symObjAddr: 0xEAF8, symBinAddr: 0x100012450, symSize: 0x14 }
  - { offsetInCU: 0x20AB3, offset: 0x20AB3, size: 0x8, addend: 0x0, symName: __ZNSt3__117__compressed_pairIPNS_11__tree_nodeINS_12__value_typeIfNS_6vectorI7AddressNS_9allocatorIS4_EEEEEEPvEENS_22__tree_node_destructorINS5_ISA_EEEEE5firstB7v160006Ev, symObjAddr: 0xEB0C, symBinAddr: 0x100012464, symSize: 0x24 }
  - { offsetInCU: 0x20AD9, offset: 0x20AD9, size: 0x8, addend: 0x0, symName: __ZNSt3__122__compressed_pair_elemIPNS_11__tree_nodeINS_12__value_typeIfNS_6vectorI7AddressNS_9allocatorIS4_EEEEEEPvEELi0ELb0EE5__getB7v160006Ev, symObjAddr: 0xEB30, symBinAddr: 0x100012488, symSize: 0x14 }
  - { offsetInCU: 0x20AFF, offset: 0x20AFF, size: 0x8, addend: 0x0, symName: __ZNSt3__110unique_ptrINS_11__tree_nodeINS_12__value_typeIfNS_6vectorI7AddressNS_9allocatorIS4_EEEEEEPvEENS_22__tree_node_destructorINS5_ISA_EEEEED2B7v160006Ev, symObjAddr: 0xEB44, symBinAddr: 0x10001249C, symSize: 0x30 }
  - { offsetInCU: 0x20B29, offset: 0x20B29, size: 0x8, addend: 0x0, symName: __ZNSt3__110unique_ptrINS_11__tree_nodeINS_12__value_typeIfNS_6vectorI7AddressNS_9allocatorIS4_EEEEEEPvEENS_22__tree_node_destructorINS5_ISA_EEEEE5resetB7v160006EPSA_, symObjAddr: 0xEB74, symBinAddr: 0x1000124CC, symSize: 0x78 }
  - { offsetInCU: 0x20B6D, offset: 0x20B6D, size: 0x8, addend: 0x0, symName: __ZNSt3__122__tree_node_destructorINS_9allocatorINS_11__tree_nodeINS_12__value_typeIfNS_6vectorI7AddressNS1_IS5_EEEEEEPvEEEEEclB7v160006EPSA_, symObjAddr: 0xEBEC, symBinAddr: 0x100012544, symSize: 0x94 }
  - { offsetInCU: 0x20BA2, offset: 0x20BA2, size: 0x8, addend: 0x0, symName: __ZNSt3__115__tree_iteratorINS_12__value_typeIfNS_6vectorI7AddressNS_9allocatorIS3_EEEEEEPNS_11__tree_nodeIS7_PvEElEC2B7v160006ESB_, symObjAddr: 0xEC80, symBinAddr: 0x1000125D8, symSize: 0x20 }
  - { offsetInCU: 0x20BDB, offset: 0x20BDB, size: 0x8, addend: 0x0, symName: __ZNSt3__14pairINS_15__tree_iteratorINS_12__value_typeIfNS_6vectorI7AddressNS_9allocatorIS4_EEEEEEPNS_11__tree_nodeIS8_PvEElEEbEC2B7v160006ISD_RbLSA_0EEEOT_OT0_, symObjAddr: 0xECA0, symBinAddr: 0x1000125F8, symSize: 0x38 }
  - { offsetInCU: 0x20C39, offset: 0x20C39, size: 0x8, addend: 0x0, symName: __ZNSt3__15tupleIJRKfEEC1B7v160006INS_4_AndELi0EEES2_, symObjAddr: 0xECD8, symBinAddr: 0x100012630, symSize: 0x34 }
  - { offsetInCU: 0x20C81, offset: 0x20C81, size: 0x8, addend: 0x0, symName: __ZNSt3__15tupleIJRKfEEC2B7v160006INS_4_AndELi0EEES2_, symObjAddr: 0xED0C, symBinAddr: 0x100012664, symSize: 0x34 }
  - { offsetInCU: 0x20CC9, offset: 0x20CC9, size: 0x8, addend: 0x0, symName: __ZNSt3__112__tuple_implINS_15__tuple_indicesIJLm0EEEEJRKfEEC1B7v160006IJLm0EEJS4_EJEJEJS4_EEENS1_IJXspT_EEEENS_13__tuple_typesIJDpT0_EEENS1_IJXspT1_EEEENS8_IJDpT2_EEEDpOT3_, symObjAddr: 0xED40, symBinAddr: 0x100012698, symSize: 0x34 }
  - { offsetInCU: 0x20D5A, offset: 0x20D5A, size: 0x8, addend: 0x0, symName: __ZNSt3__112__tuple_implINS_15__tuple_indicesIJLm0EEEEJRKfEEC2B7v160006IJLm0EEJS4_EJEJEJS4_EEENS1_IJXspT_EEEENS_13__tuple_typesIJDpT0_EEENS1_IJXspT1_EEEENS8_IJDpT2_EEEDpOT3_, symObjAddr: 0xED74, symBinAddr: 0x1000126CC, symSize: 0x34 }
  - { offsetInCU: 0x20DEB, offset: 0x20DEB, size: 0x8, addend: 0x0, symName: __ZNSt3__112__tuple_leafILm0ERKfLb0EEC2B7v160006IS2_vEEOT_, symObjAddr: 0xEDA8, symBinAddr: 0x100012700, symSize: 0x20 }
  - { offsetInCU: 0x20E2E, offset: 0x20E2E, size: 0x8, addend: 0x0, symName: __ZNSt3__114pointer_traitsIPNS_12__value_typeIfNS_6vectorI7AddressNS_9allocatorIS3_EEEEEEE10pointer_toB7v160006ERS7_, symObjAddr: 0xEDC8, symBinAddr: 0x100012720, symSize: 0x14 }
  - { offsetInCU: 0x20E51, offset: 0x20E51, size: 0x8, addend: 0x0, symName: __ZNSt3__16__treeINS_12__value_typeIfNS_6vectorI7AddressNS_9allocatorIS3_EEEEEENS_19__map_value_compareIfS7_NS_4lessIfEELb1EEENS4_IS7_EEE5beginB7v160006Ev, symObjAddr: 0xEDDC, symBinAddr: 0x100012734, symSize: 0x34 }
  - { offsetInCU: 0x20E77, offset: 0x20E77, size: 0x8, addend: 0x0, symName: __ZNSt3__115__tree_iteratorINS_12__value_typeIfNS_6vectorI7AddressNS_9allocatorIS3_EEEEEEPNS_11__tree_nodeIS7_PvEElEppB7v160006Ev, symObjAddr: 0xEE10, symBinAddr: 0x100012768, symSize: 0x38 }
  - { offsetInCU: 0x20E9D, offset: 0x20E9D, size: 0x8, addend: 0x0, symName: __ZNKSt3__16vectorI7AddressNS_9allocatorIS1_EEE11__make_iterB7v160006EPKS1_, symObjAddr: 0xEF08, symBinAddr: 0x100012860, symSize: 0x34 }
  - { offsetInCU: 0x20ED2, offset: 0x20ED2, size: 0x8, addend: 0x0, symName: __ZNSt3__111__wrap_iterIPK7AddressEC1B7v160006EPKvS3_, symObjAddr: 0xEF3C, symBinAddr: 0x100012894, symSize: 0x3C }
  - { offsetInCU: 0x20F18, offset: 0x20F18, size: 0x8, addend: 0x0, symName: __ZNSt3__111__wrap_iterIPK7AddressEC2B7v160006EPKvS3_, symObjAddr: 0xEF78, symBinAddr: 0x1000128D0, symSize: 0x24 }
  - { offsetInCU: 0x20F5E, offset: 0x20F5E, size: 0x8, addend: 0x0, symName: __ZNKSt3__16__treeINS_12__value_typeIfNS_6vectorI7AddressNS_9allocatorIS3_EEEEEENS_19__map_value_compareIfS7_NS_4lessIfEELb1EEENS4_IS7_EEE4sizeB7v160006Ev, symObjAddr: 0xEF9C, symBinAddr: 0x1000128F4, symSize: 0x28 }
  - { offsetInCU: 0x20F84, offset: 0x20F84, size: 0x8, addend: 0x0, symName: __ZNKSt3__117__compressed_pairImNS_19__map_value_compareIfNS_12__value_typeIfNS_6vectorI7AddressNS_9allocatorIS4_EEEEEENS_4lessIfEELb1EEEE5firstB7v160006Ev, symObjAddr: 0xEFC4, symBinAddr: 0x10001291C, symSize: 0x24 }
  - { offsetInCU: 0x20FAA, offset: 0x20FAA, size: 0x8, addend: 0x0, symName: __ZNKSt3__122__compressed_pair_elemImLi0ELb0EE5__getB7v160006Ev, symObjAddr: 0xEFE8, symBinAddr: 0x100012940, symSize: 0x14 }
  - { offsetInCU: 0x2D95, offset: 0x2471E, size: 0x8, addend: 0x0, symName: __ZNSt3__16chronomiB7v160006IxNS_5ratioILl1ELl1000000EEExS3_EENS_11common_typeIJNS0_8durationIT_T0_EENS5_IT1_T2_EEEE4typeERKS8_RKSB_, symObjAddr: 0x197C, symBinAddr: 0x100013A68, symSize: 0x70 }
  - { offsetInCU: 0x2E02, offset: 0x2478B, size: 0x8, addend: 0x0, symName: __ZNSt3__16chronoplB7v160006INS0_12system_clockENS0_8durationIxNS_5ratioILl1ELl1000000EEEEEiNS4_ILl86400ELl1EEEEENS0_10time_pointIT_NS_11common_typeIJT0_NS3_IT1_T2_EEEE4typeEEERKNS8_IS9_SB_EERKSE_, symObjAddr: 0x984, symBinAddr: 0x10001319C, symSize: 0x50 }
  - { offsetInCU: 0x2F8B, offset: 0x24914, size: 0x8, addend: 0x0, symName: __ZNSt3__16chronoplB7v160006IxNS_5ratioILl1ELl1000000EEEiNS2_ILl86400ELl1EEEEENS_11common_typeIJNS0_8durationIT_T0_EENS6_IT1_T2_EEEE4typeERKS9_RKSC_, symObjAddr: 0x1A70, symBinAddr: 0x100013B5C, symSize: 0x7C }
  - { offsetInCU: 0x3043, offset: 0x249CC, size: 0x8, addend: 0x0, symName: __ZNSt3__16chrono13duration_castB7v160006INS0_8durationIiNS_5ratioILl86400ELl1EEEEExNS3_ILl1ELl1000000EEEEENS_9enable_ifIXsr13__is_durationIT_EE5valueES8_E4typeERKNS2_IT0_T1_EE, symObjAddr: 0x768, symBinAddr: 0x100012FC0, symSize: 0x30 }
  - { offsetInCU: 0x308A, offset: 0x24A13, size: 0x8, addend: 0x0, symName: __ZNSt3__16chronomiB7v160006INS0_12system_clockENS0_8durationIxNS_5ratioILl1ELl1000000EEEEES6_EENS_11common_typeIJT0_T1_EE4typeERKNS0_10time_pointIT_S8_EERKNSC_ISD_S9_EE, symObjAddr: 0x798, symBinAddr: 0x100012FF0, symSize: 0x58 }
  - { offsetInCU: 0x30DF, offset: 0x24A68, size: 0x8, addend: 0x0, symName: __ZNSt3__16chrono13duration_castB7v160006INS0_8durationIxNS_5ratioILl1ELl1000000EEEEEiNS3_ILl86400ELl1EEEEENS_9enable_ifIXsr13__is_durationIT_EE5valueES8_E4typeERKNS2_IT0_T1_EE, symObjAddr: 0x1BAC, symBinAddr: 0x100013C98, symSize: 0x30 }
  - { offsetInCU: 0x3300, offset: 0x24C89, size: 0x8, addend: 0x0, symName: __ZNSt3__1rsB7v160006IcNS_11char_traitsIcEEEERNS_13basic_istreamIT_T0_EES7_RKNS_8__iom_t9IS4_EE, symObjAddr: 0x564, symBinAddr: 0x100012DBC, symSize: 0x1CC }
  - { offsetInCU: 0x4509, offset: 0x25E92, size: 0x8, addend: 0x0, symName: __ZNSt3__1lsB7v160006IcNS_11char_traitsIcEEEERNS_13basic_ostreamIT_T0_EES7_RKNS_9__iom_t10IS4_EE, symObjAddr: 0xAFC, symBinAddr: 0x100013314, symSize: 0x20C }
  - { offsetInCU: 0x5498, offset: 0x26E21, size: 0x8, addend: 0x0, symName: __ZNSt3__18get_timeB7v160006IcEENS_8__iom_t9IT_EEP2tmPKS2_, symObjAddr: 0x730, symBinAddr: 0x100012F88, symSize: 0x38 }
  - { offsetInCU: 0x5613, offset: 0x26F9C, size: 0x8, addend: 0x0, symName: __ZNSt3__18put_timeB7v160006IcEENS_9__iom_t10IT_EEPK2tmPKS2_, symObjAddr: 0xD08, symBinAddr: 0x100013520, symSize: 0x38 }
  - { offsetInCU: 0x56AB, offset: 0x27034, size: 0x8, addend: 0x0, symName: __ZNSt3__19use_facetB7v160006INS_8time_getIcNS_19istreambuf_iteratorIcNS_11char_traitsIcEEEEEEEERKT_RKNS_6localeE, symObjAddr: 0x1790, symBinAddr: 0x100013970, symSize: 0x2C }
  - { offsetInCU: 0x5729, offset: 0x270B2, size: 0x8, addend: 0x0, symName: __ZNSt3__19use_facetB7v160006INS_8time_putIcNS_19ostreambuf_iteratorIcNS_11char_traitsIcEEEEEEEERKT_RKNS_6localeE, symObjAddr: 0x1F2C, symBinAddr: 0x100013E40, symSize: 0x2C }
  - { offsetInCU: 0x630E, offset: 0x27C97, size: 0x8, addend: 0x0, symName: __ZNKSt3__16chrono15__duration_castINS0_8durationIxNS_5ratioILl1ELl1000000EEEEENS2_IiNS3_ILl86400ELl1EEEEENS3_ILl1ELl86400000000EEELb1ELb0EEclB7v160006ERKS5_, symObjAddr: 0x10A0, symBinAddr: 0x1000137EC, symSize: 0x50 }
  - { offsetInCU: 0x64FA, offset: 0x27E83, size: 0x8, addend: 0x0, symName: __ZNKSt3__16chrono15__duration_castINS0_8durationIiNS_5ratioILl86400ELl1EEEEENS2_IxNS3_ILl1ELl1000000EEEEENS3_ILl86400000000ELl1EEELb0ELb1EEclB7v160006ERKS5_, symObjAddr: 0x1BDC, symBinAddr: 0x100013CC8, symSize: 0x58 }
  - { offsetInCU: 0x83AA, offset: 0x29D33, size: 0x8, addend: 0x0, symName: __ZN6RecordC2EfffiPhithhhhb, symObjAddr: 0x0, symBinAddr: 0x100012954, symSize: 0xB8 }
  - { offsetInCU: 0x847E, offset: 0x29E07, size: 0x8, addend: 0x0, symName: __ZN6RecordC1EfffiPhithhhhb, symObjAddr: 0xB8, symBinAddr: 0x100012A0C, symSize: 0xAC }
  - { offsetInCU: 0x8552, offset: 0x29EDB, size: 0x8, addend: 0x0, symName: __ZN6RecordC2EtNSt3__112basic_stringIcNS0_11char_traitsIcEENS0_9allocatorIcEEEEhhhhfffiPht, symObjAddr: 0x164, symBinAddr: 0x100012AB8, symSize: 0xF8 }
  - { offsetInCU: 0x8650, offset: 0x29FD9, size: 0x8, addend: 0x0, symName: __ZN6Record12dateToOffsetERKNSt3__112basic_stringIcNS0_11char_traitsIcEENS0_9allocatorIcEEEE, symObjAddr: 0x25C, symBinAddr: 0x100012BB0, symSize: 0x148 }
  - { offsetInCU: 0x86DF, offset: 0x2A068, size: 0x8, addend: 0x0, symName: __ZN6Record10winsToBoolEi, symObjAddr: 0x3A4, symBinAddr: 0x100012CF8, symSize: 0x24 }
  - { offsetInCU: 0x8715, offset: 0x2A09E, size: 0x8, addend: 0x0, symName: __ZN6RecordC1EtNSt3__112basic_stringIcNS0_11char_traitsIcEENS0_9allocatorIcEEEEhhhhfffiPht, symObjAddr: 0x3C8, symBinAddr: 0x100012D1C, symSize: 0xA0 }
  - { offsetInCU: 0x883B, offset: 0x2A1C4, size: 0x8, addend: 0x0, symName: __ZNKSt3__16chrono8durationIiNS_5ratioILl86400ELl1EEEE5countB7v160006Ev, symObjAddr: 0x7F0, symBinAddr: 0x100013048, symSize: 0x18 }
  - { offsetInCU: 0x8866, offset: 0x2A1EF, size: 0x8, addend: 0x0, symName: __ZN6Record12offsetToDateEi, symObjAddr: 0x848, symBinAddr: 0x100013060, symSize: 0x13C }
  - { offsetInCU: 0x88F4, offset: 0x2A27D, size: 0x8, addend: 0x0, symName: __ZNSt3__16chrono8durationIiNS_5ratioILl86400ELl1EEEEC1B7v160006IiEERKT_PNS_9enable_ifIXaasr14is_convertibleIS8_iEE5valueooL_ZNS_17integral_constantIbLb0EE5valueEEntsr23treat_as_floating_pointIS6_EE5valueEvE4typeE, symObjAddr: 0x9D4, symBinAddr: 0x1000131EC, symSize: 0x3C }
  - { offsetInCU: 0x8964, offset: 0x2A2ED, size: 0x8, addend: 0x0, symName: __ZNSt3__119basic_ostringstreamIcNS_11char_traitsIcEENS_9allocatorIcEEEC1B7v160006Ev, symObjAddr: 0xA10, symBinAddr: 0x100013228, symSize: 0xEC }
  - { offsetInCU: 0x898D, offset: 0x2A316, size: 0x8, addend: 0x0, symName: __ZNKSt3__119basic_ostringstreamIcNS_11char_traitsIcEENS_9allocatorIcEEE3strB7v160006Ev, symObjAddr: 0xD40, symBinAddr: 0x100013558, symSize: 0x30 }
  - { offsetInCU: 0x89B9, offset: 0x2A342, size: 0x8, addend: 0x0, symName: __ZNSt3__119basic_ostringstreamIcNS_11char_traitsIcEENS_9allocatorIcEEED1Ev, symObjAddr: 0xD70, symBinAddr: 0x100013588, symSize: 0x40 }
  - { offsetInCU: 0x89E6, offset: 0x2A36F, size: 0x8, addend: 0x0, symName: __ZN6Record14teamIDToOffsetEi, symObjAddr: 0xDB0, symBinAddr: 0x1000135C8, symSize: 0x30 }
  - { offsetInCU: 0x8A38, offset: 0x2A3C1, size: 0x8, addend: 0x0, symName: __ZN6Record14offsetToTeamIDEh, symObjAddr: 0xDE0, symBinAddr: 0x1000135F8, symSize: 0x28 }
  - { offsetInCU: 0x8A7C, offset: 0x2A405, size: 0x8, addend: 0x0, symName: __ZN6Record13boolWinsToIntEb, symObjAddr: 0xE08, symBinAddr: 0x100013620, symSize: 0x30 }
  - { offsetInCU: 0x8AB2, offset: 0x2A43B, size: 0x8, addend: 0x0, symName: __ZNK6Record5printEv, symObjAddr: 0xE38, symBinAddr: 0x100013650, symSize: 0x15C }
  - { offsetInCU: 0x8ADA, offset: 0x2A463, size: 0x8, addend: 0x0, symName: __ZN6Record15setBlockAddressEPh, symObjAddr: 0x1060, symBinAddr: 0x1000137AC, symSize: 0x20 }
  - { offsetInCU: 0x8B10, offset: 0x2A499, size: 0x8, addend: 0x0, symName: __ZN6Record9setOffsetEi, symObjAddr: 0x1080, symBinAddr: 0x1000137CC, symSize: 0x20 }
  - { offsetInCU: 0x8B46, offset: 0x2A4CF, size: 0x8, addend: 0x0, symName: __ZNKSt3__16chrono8durationIxNS_5ratioILl1ELl1000000EEEE5countB7v160006Ev, symObjAddr: 0x10F0, symBinAddr: 0x10001383C, symSize: 0x18 }
  - { offsetInCU: 0x8B71, offset: 0x2A4FA, size: 0x8, addend: 0x0, symName: __ZNSt3__16chrono8durationIiNS_5ratioILl86400ELl1EEEEC2B7v160006IiEERKT_PNS_9enable_ifIXaasr14is_convertibleIS8_iEE5valueooL_ZNS_17integral_constantIbLb0EE5valueEEntsr23treat_as_floating_pointIS6_EE5valueEvE4typeE, symObjAddr: 0x1208, symBinAddr: 0x100013854, symSize: 0x28 }
  - { offsetInCU: 0x8BBD, offset: 0x2A546, size: 0x8, addend: 0x0, symName: __ZNSt3__119basic_ostringstreamIcNS_11char_traitsIcEENS_9allocatorIcEEED2Ev, symObjAddr: 0x1230, symBinAddr: 0x10001387C, symSize: 0x64 }
  - { offsetInCU: 0x8BF7, offset: 0x2A580, size: 0x8, addend: 0x0, symName: __ZTv0_n24_NSt3__119basic_ostringstreamIcNS_11char_traitsIcEENS_9allocatorIcEEED1Ev, symObjAddr: 0x1294, symBinAddr: 0x1000138E0, symSize: 0x28 }
  - { offsetInCU: 0x8C13, offset: 0x2A59C, size: 0x8, addend: 0x0, symName: __ZNSt3__18__iom_t9IcEC1B7v160006EP2tmPKc, symObjAddr: 0x170C, symBinAddr: 0x100013908, symSize: 0x3C }
  - { offsetInCU: 0x8C5B, offset: 0x2A5E4, size: 0x8, addend: 0x0, symName: __ZNSt3__18__iom_t9IcEC2B7v160006EP2tmPKc, symObjAddr: 0x1748, symBinAddr: 0x100013944, symSize: 0x2C }
  - { offsetInCU: 0x8CC1, offset: 0x2A64A, size: 0x8, addend: 0x0, symName: __ZNSt3__119istreambuf_iteratorIcNS_11char_traitsIcEEEC1B7v160006ERNS_13basic_istreamIcS2_EE, symObjAddr: 0x17BC, symBinAddr: 0x10001399C, symSize: 0x34 }
  - { offsetInCU: 0x8CF9, offset: 0x2A682, size: 0x8, addend: 0x0, symName: __ZNSt3__119istreambuf_iteratorIcNS_11char_traitsIcEEEC1B7v160006Ev, symObjAddr: 0x17F0, symBinAddr: 0x1000139D0, symSize: 0x2C }
  - { offsetInCU: 0x8D23, offset: 0x2A6AC, size: 0x8, addend: 0x0, symName: __ZNSt3__119istreambuf_iteratorIcNS_11char_traitsIcEEEC2B7v160006ERNS_13basic_istreamIcS2_EE, symObjAddr: 0x187C, symBinAddr: 0x1000139FC, symSize: 0x54 }
  - { offsetInCU: 0x8D5B, offset: 0x2A6E4, size: 0x8, addend: 0x0, symName: __ZNSt3__119istreambuf_iteratorIcNS_11char_traitsIcEEEC2B7v160006Ev, symObjAddr: 0x190C, symBinAddr: 0x100013A50, symSize: 0x18 }
  - { offsetInCU: 0x8D85, offset: 0x2A70E, size: 0x8, addend: 0x0, symName: __ZNKSt3__16chrono10time_pointINS0_12system_clockENS0_8durationIxNS_5ratioILl1ELl1000000EEEEEE16time_since_epochB7v160006Ev, symObjAddr: 0x19EC, symBinAddr: 0x100013AD8, symSize: 0x20 }
  - { offsetInCU: 0x8DB5, offset: 0x2A73E, size: 0x8, addend: 0x0, symName: __ZNSt3__16chrono8durationIxNS_5ratioILl1ELl1000000EEEEC1B7v160006IxEERKT_PNS_9enable_ifIXaasr14is_convertibleIS8_xEE5valueooL_ZNS_17integral_constantIbLb0EE5valueEEntsr23treat_as_floating_pointIS6_EE5valueEvE4typeE, symObjAddr: 0x1A0C, symBinAddr: 0x100013AF8, symSize: 0x3C }
  - { offsetInCU: 0x8E01, offset: 0x2A78A, size: 0x8, addend: 0x0, symName: __ZNSt3__16chrono8durationIxNS_5ratioILl1ELl1000000EEEEC2B7v160006IxEERKT_PNS_9enable_ifIXaasr14is_convertibleIS8_xEE5valueooL_ZNS_17integral_constantIbLb0EE5valueEEntsr23treat_as_floating_pointIS6_EE5valueEvE4typeE, symObjAddr: 0x1A48, symBinAddr: 0x100013B34, symSize: 0x28 }
  - { offsetInCU: 0x8E4D, offset: 0x2A7D6, size: 0x8, addend: 0x0, symName: __ZNSt3__16chrono10time_pointINS0_12system_clockENS0_8durationIxNS_5ratioILl1ELl1000000EEEEEEC1B7v160006ERKS6_, symObjAddr: 0x1AEC, symBinAddr: 0x100013BD8, symSize: 0x34 }
  - { offsetInCU: 0x8E85, offset: 0x2A80E, size: 0x8, addend: 0x0, symName: __ZNSt3__16chrono8durationIxNS_5ratioILl1ELl1000000EEEEC1B7v160006IiNS2_ILl86400ELl1EEEEERKNS1_IT_T0_EEPNS_9enable_ifIXaasr13__no_overflowIS8_S3_EE5valueooL_ZNS_17integral_constantIbLb0EE5valueEEaaeqsr13__no_overflowIS8_S3_E4typeE3denLi1Entsr23treat_as_floating_pointIS7_EE5valueEvE4typeE, symObjAddr: 0x1B20, symBinAddr: 0x100013C0C, symSize: 0x3C }
  - { offsetInCU: 0x8EDB, offset: 0x2A864, size: 0x8, addend: 0x0, symName: __ZNSt3__16chrono8durationIxNS_5ratioILl1ELl1000000EEEEC2B7v160006IiNS2_ILl86400ELl1EEEEERKNS1_IT_T0_EEPNS_9enable_ifIXaasr13__no_overflowIS8_S3_EE5valueooL_ZNS_17integral_constantIbLb0EE5valueEEaaeqsr13__no_overflowIS8_S3_E4typeE3denLi1Entsr23treat_as_floating_pointIS7_EE5valueEvE4typeE, symObjAddr: 0x1B5C, symBinAddr: 0x100013C48, symSize: 0x50 }
  - { offsetInCU: 0x8F31, offset: 0x2A8BA, size: 0x8, addend: 0x0, symName: __ZNSt3__16chrono10time_pointINS0_12system_clockENS0_8durationIxNS_5ratioILl1ELl1000000EEEEEEC2B7v160006ERKS6_, symObjAddr: 0x1C34, symBinAddr: 0x100013D20, symSize: 0x24 }
  - { offsetInCU: 0x8F69, offset: 0x2A8F2, size: 0x8, addend: 0x0, symName: __ZNSt3__115basic_stringbufIcNS_11char_traitsIcEENS_9allocatorIcEEEC1B7v160006Ej, symObjAddr: 0x1CB8, symBinAddr: 0x100013D44, symSize: 0x34 }
  - { offsetInCU: 0x8FA1, offset: 0x2A92A, size: 0x8, addend: 0x0, symName: __ZNSt3__115basic_stringbufIcNS_11char_traitsIcEENS_9allocatorIcEEEC2B7v160006Ej, symObjAddr: 0x1CEC, symBinAddr: 0x100013D78, symSize: 0x60 }
  - { offsetInCU: 0x8FDE, offset: 0x2A967, size: 0x8, addend: 0x0, symName: __ZNSt3__19__iom_t10IcEC1B7v160006EPK2tmPKc, symObjAddr: 0x1EA8, symBinAddr: 0x100013DD8, symSize: 0x3C }
  - { offsetInCU: 0x9026, offset: 0x2A9AF, size: 0x8, addend: 0x0, symName: __ZNSt3__19__iom_t10IcEC2B7v160006EPK2tmPKc, symObjAddr: 0x1EE4, symBinAddr: 0x100013E14, symSize: 0x2C }
  - { offsetInCU: 0x5C, offset: 0x2ABA1, size: 0x8, addend: 0x0, symName: __ZNSt3__1L19piecewise_constructE, symObjAddr: 0x8B14, symBinAddr: 0x10001F106, symSize: 0x0 }
  - { offsetInCU: 0x40BD, offset: 0x2EC02, size: 0x8, addend: 0x0, symName: __ZNSt3__17advanceB7v160006INS_11__wrap_iterIP6RecordEEllvEEvRT_T0_, symObjAddr: 0x5948, symBinAddr: 0x100018174, symSize: 0x50 }
  - { offsetInCU: 0x56B0, offset: 0x301F5, size: 0x8, addend: 0x0, symName: __ZNSt3__1neB7v160006ERKNS_19__hash_map_iteratorINS_15__hash_iteratorIPNS_11__hash_nodeINS_17__hash_value_typeIiiEEPvEEEEEESB_, symObjAddr: 0x5F4, symBinAddr: 0x100014394, symSize: 0x30 }
  - { offsetInCU: 0x56ED, offset: 0x30232, size: 0x8, addend: 0x0, symName: __ZNSt3__119__debug_db_insert_cB7v160006INS_13unordered_mapIiiNS_4hashIiEENS_8equal_toIiEENS_9allocatorINS_4pairIKiiEEEEEEEEvPT_, symObjAddr: 0x1320, symBinAddr: 0x100014F90, symSize: 0x10 }
  - { offsetInCU: 0x571E, offset: 0x30263, size: 0x8, addend: 0x0, symName: __ZNSt3__118__debug_db_erase_cB7v160006INS_12__hash_tableINS_17__hash_value_typeIiiEENS_22__unordered_map_hasherIiS3_NS_4hashIiEENS_8equal_toIiEELb1EEENS_21__unordered_map_equalIiS3_S8_S6_Lb1EEENS_9allocatorIS3_EEEEEEvPT_, symObjAddr: 0x1AA0, symBinAddr: 0x1000156EC, symSize: 0x10 }
  - { offsetInCU: 0x5782, offset: 0x302C7, size: 0x8, addend: 0x0, symName: __ZNSt3__116forward_as_tupleB7v160006IJiEEENS_5tupleIJDpOT_EEES4_, symObjAddr: 0x242C, symBinAddr: 0x100015FE8, symSize: 0x2C }
  - { offsetInCU: 0x57BB, offset: 0x30300, size: 0x8, addend: 0x0, symName: __ZNSt3__116__constrain_hashB7v160006Emm, symObjAddr: 0x250C, symBinAddr: 0x1000160C4, symSize: 0x98 }
  - { offsetInCU: 0x57F5, offset: 0x3033A, size: 0x8, addend: 0x0, symName: __ZNSt3__116__is_hash_power2B7v160006Em, symObjAddr: 0x2858, symBinAddr: 0x1000163E4, symSize: 0x50 }
  - { offsetInCU: 0x583F, offset: 0x30384, size: 0x8, addend: 0x0, symName: __ZNSt3__13getB7v160006ILm0EJOiEEERNS_13tuple_elementIXT_ENS_5tupleIJDpT0_EEEE4typeERS6_, symObjAddr: 0x306C, symBinAddr: 0x100016B64, symSize: 0x24 }
  - { offsetInCU: 0x5882, offset: 0x303C7, size: 0x8, addend: 0x0, symName: __ZNSt3__116__next_hash_pow2B7v160006Em, symObjAddr: 0x3578, symBinAddr: 0x100017070, symSize: 0x6C }
  - { offsetInCU: 0x58AE, offset: 0x303F3, size: 0x8, addend: 0x0, symName: __ZNSt3__125__debug_db_invalidate_allB7v160006INS_12__hash_tableINS_17__hash_value_typeIiiEENS_22__unordered_map_hasherIiS3_NS_4hashIiEENS_8equal_toIiEELb1EEENS_21__unordered_map_equalIiS3_S8_S6_Lb1EEENS_9allocatorIS3_EEEEEEvPT_, symObjAddr: 0x35E4, symBinAddr: 0x1000170DC, symSize: 0x10 }
  - { offsetInCU: 0x5927, offset: 0x3046C, size: 0x8, addend: 0x0, symName: __ZNSt3__1neB7v160006ERKNS_15__hash_iteratorIPNS_11__hash_nodeINS_17__hash_value_typeIiiEEPvEEEES9_, symObjAddr: 0x482C, symBinAddr: 0x100017788, symSize: 0x34 }
  - { offsetInCU: 0x5964, offset: 0x304A9, size: 0x8, addend: 0x0, symName: __ZNSt3__1eqB7v160006ERKNS_15__hash_iteratorIPNS_11__hash_nodeINS_17__hash_value_typeIiiEEPvEEEES9_, symObjAddr: 0x4860, symBinAddr: 0x1000177BC, symSize: 0x30 }
  - { offsetInCU: 0x59D4, offset: 0x30519, size: 0x8, addend: 0x0, symName: __ZNSt3__116forward_as_tupleB7v160006IJRKiEEENS_5tupleIJDpOT_EEES6_, symObjAddr: 0x4D3C, symBinAddr: 0x100017C98, symSize: 0x2C }
  - { offsetInCU: 0x5A0D, offset: 0x30552, size: 0x8, addend: 0x0, symName: __ZNSt3__13getB7v160006ILm0EJRKiEEERNS_13tuple_elementIXT_ENS_5tupleIJDpT0_EEEE4typeERS7_, symObjAddr: 0x5008, symBinAddr: 0x100017F64, symSize: 0x24 }
  - { offsetInCU: 0x5A65, offset: 0x305AA, size: 0x8, addend: 0x0, symName: __ZNSt3__1miB7v160006IPK6RecordPS1_EEDTmicldtfp_4baseEcldtfp0_4baseEERKNS_11__wrap_iterIT_EERKNS6_IT0_EE, symObjAddr: 0x589C, symBinAddr: 0x1000180F0, symSize: 0x48 }
  - { offsetInCU: 0x5AB1, offset: 0x305F6, size: 0x8, addend: 0x0, symName: __ZNSt3__18distanceB7v160006INS_11__wrap_iterIP6RecordEEEENS_15iterator_traitsIT_E15difference_typeES6_S6_, symObjAddr: 0x58E4, symBinAddr: 0x100018138, symSize: 0x3C }
  - { offsetInCU: 0x5AF4, offset: 0x30639, size: 0x8, addend: 0x0, symName: __ZNSt3__14copyB7v160006INS_11__wrap_iterIP6RecordEES3_EET0_T_S6_S5_, symObjAddr: 0x5B70, symBinAddr: 0x10001839C, symSize: 0x50 }
  - { offsetInCU: 0x5B4E, offset: 0x30693, size: 0x8, addend: 0x0, symName: __ZNSt3__110__distanceB7v160006INS_11__wrap_iterIP6RecordEEEENS_15iterator_traitsIT_E15difference_typeES6_S6_NS_26random_access_iterator_tagE, symObjAddr: 0x5F58, symBinAddr: 0x100018648, symSize: 0x30 }
  - { offsetInCU: 0x5B9B, offset: 0x306E0, size: 0x8, addend: 0x0, symName: __ZNSt3__1miB7v160006IP6RecordS2_EEDTmicldtfp_4baseEcldtfp0_4baseEERKNS_11__wrap_iterIT_EERKNS4_IT0_EE, symObjAddr: 0x5F88, symBinAddr: 0x100018678, symSize: 0x48 }
  - { offsetInCU: 0x5BE7, offset: 0x3072C, size: 0x8, addend: 0x0, symName: __ZNSt3__121__convert_to_integralB7v160006El, symObjAddr: 0x6008, symBinAddr: 0x1000186C0, symSize: 0x14 }
  - { offsetInCU: 0x5C13, offset: 0x30758, size: 0x8, addend: 0x0, symName: __ZNSt3__19__advanceB7v160006INS_11__wrap_iterIP6RecordEEEEvRT_NS_15iterator_traitsIS5_E15difference_typeENS_26random_access_iterator_tagE, symObjAddr: 0x601C, symBinAddr: 0x1000186D4, symSize: 0x2C }
  - { offsetInCU: 0x5C5C, offset: 0x307A1, size: 0x8, addend: 0x0, symName: __ZNSt3__130__uninitialized_allocator_copyB7v160006INS_9allocatorI6RecordEENS_11__wrap_iterIPS2_EES6_S5_EET2_RT_T0_T1_S7_, symObjAddr: 0x60B4, symBinAddr: 0x100018730, symSize: 0xF8 }
  - { offsetInCU: 0x5CFA, offset: 0x3083F, size: 0x8, addend: 0x0, symName: __ZNSt3__122__make_exception_guardB7v160006INS_29_AllocatorDestroyRangeReverseINS_9allocatorI6RecordEEPS3_EEEENS_28__exception_guard_exceptionsIT_EES8_, symObjAddr: 0x6224, symBinAddr: 0x100018828, symSize: 0x4C }
  - { offsetInCU: 0x5D30, offset: 0x30875, size: 0x8, addend: 0x0, symName: __ZNSt3__119__allocator_destroyB7v160006INS_9allocatorI6RecordEENS_16reverse_iteratorIPS2_EES6_EEvRT_T0_T1_, symObjAddr: 0x656C, symBinAddr: 0x100018ABC, symSize: 0x70 }
  - { offsetInCU: 0x5D93, offset: 0x308D8, size: 0x8, addend: 0x0, symName: __ZNSt3__112__to_addressB7v160006INS_16reverse_iteratorIP6RecordEEvEENS_5decayIDTclsr19__to_address_helperIT_EE6__callclsr3stdE7declvalIRKS6_EEEEE4typeES8_, symObjAddr: 0x6658, symBinAddr: 0x100018B2C, symSize: 0x24 }
  - { offsetInCU: 0x5DF2, offset: 0x30937, size: 0x8, addend: 0x0, symName: __ZNSt3__113move_backwardB7v160006IP6RecordS2_EET0_T_S4_S3_, symObjAddr: 0x67B4, symBinAddr: 0x100018BE0, symSize: 0x40 }
  - { offsetInCU: 0x5E4C, offset: 0x30991, size: 0x8, addend: 0x0, symName: __ZNSt3__115__move_backwardB7v160006INS_17_ClassicAlgPolicyEP6RecordS3_S3_EENS_4pairIT0_T2_EES5_T1_S6_, symObjAddr: 0x6828, symBinAddr: 0x100018C54, symSize: 0x44 }
  - { offsetInCU: 0x5EB8, offset: 0x309FD, size: 0x8, addend: 0x0, symName: __ZNSt3__123__dispatch_copy_or_moveB7v160006INS_17_ClassicAlgPolicyENS_20__move_backward_loopIS1_EENS_23__move_backward_trivialEP6RecordS6_S6_EENS_4pairIT2_T4_EES8_T3_S9_, symObjAddr: 0x686C, symBinAddr: 0x100018C98, symSize: 0x44 }
  - { offsetInCU: 0x5F36, offset: 0x30A7B, size: 0x8, addend: 0x0, symName: __ZNSt3__121__unwrap_and_dispatchB7v160006INS_10__overloadINS_20__move_backward_loopINS_17_ClassicAlgPolicyEEENS_23__move_backward_trivialEEEP6RecordS8_S8_Li0EEENS_4pairIT0_T2_EESA_T1_SB_, symObjAddr: 0x68B0, symBinAddr: 0x100018CDC, symSize: 0xB4 }
  - { offsetInCU: 0x5FC4, offset: 0x30B09, size: 0x8, addend: 0x0, symName: __ZNSt3__114__unwrap_rangeB7v160006IP6RecordS2_EENS_4pairIT0_S4_EET_S6_, symObjAddr: 0x6964, symBinAddr: 0x100018D90, symSize: 0x60 }
  - { offsetInCU: 0x6188, offset: 0x30CCD, size: 0x8, addend: 0x0, symName: __ZNSt3__113__unwrap_iterB7v160006IP6RecordNS_18__unwrap_iter_implIS2_Lb1EEELi0EEEDTclsrT0_8__unwrapclsr3stdE7declvalIT_EEEES6_, symObjAddr: 0x6A0C, symBinAddr: 0x100018E38, symSize: 0x24 }
  - { offsetInCU: 0x61CC, offset: 0x30D11, size: 0x8, addend: 0x0, symName: __ZNSt3__19make_pairB7v160006IP6RecordS2_EENS_4pairINS_18__unwrap_ref_decayIT_E4typeENS4_IT0_E4typeEEEOS5_OS8_, symObjAddr: 0x6A30, symBinAddr: 0x100018E5C, symSize: 0x38 }
  - { offsetInCU: 0x621B, offset: 0x30D60, size: 0x8, addend: 0x0, symName: __ZNSt3__114__rewrap_rangeB7v160006IP6RecordS2_EET_S3_T0_, symObjAddr: 0x6A68, symBinAddr: 0x100018E94, symSize: 0x2C }
  - { offsetInCU: 0x6267, offset: 0x30DAC, size: 0x8, addend: 0x0, symName: __ZNSt3__113__rewrap_iterB7v160006IP6RecordS2_NS_18__unwrap_iter_implIS2_Lb1EEEEET_S5_T0_, symObjAddr: 0x6A94, symBinAddr: 0x100018EC0, symSize: 0x3C }
  - { offsetInCU: 0x62BC, offset: 0x30E01, size: 0x8, addend: 0x0, symName: __ZNSt3__128__copy_backward_trivial_implB7v160006I6RecordS1_EENS_4pairIPT_PT0_EES4_S4_S6_, symObjAddr: 0x6AD0, symBinAddr: 0x100018EFC, symSize: 0x94 }
  - { offsetInCU: 0x6324, offset: 0x30E69, size: 0x8, addend: 0x0, symName: __ZNSt3__19make_pairB7v160006IRP6RecordS3_EENS_4pairINS_18__unwrap_ref_decayIT_E4typeENS5_IT0_E4typeEEEOS6_OS9_, symObjAddr: 0x6B64, symBinAddr: 0x100018F90, symSize: 0x38 }
  - { offsetInCU: 0x63C6, offset: 0x30F0B, size: 0x8, addend: 0x0, symName: __ZNSt3__16__copyB7v160006INS_17_ClassicAlgPolicyENS_11__wrap_iterIP6RecordEES5_S4_EENS_4pairIT0_T2_EES7_T1_S8_, symObjAddr: 0x6CF8, symBinAddr: 0x100019124, symSize: 0x54 }
  - { offsetInCU: 0x6432, offset: 0x30F77, size: 0x8, addend: 0x0, symName: __ZNSt3__123__dispatch_copy_or_moveB7v160006INS_17_ClassicAlgPolicyENS_11__copy_loopIS1_EENS_14__copy_trivialENS_11__wrap_iterIP6RecordEES8_S7_EENS_4pairIT2_T4_EESA_T3_SB_, symObjAddr: 0x6D4C, symBinAddr: 0x100019178, symSize: 0x54 }
  - { offsetInCU: 0x64B0, offset: 0x30FF5, size: 0x8, addend: 0x0, symName: __ZNSt3__121__unwrap_and_dispatchB7v160006INS_10__overloadINS_11__copy_loopINS_17_ClassicAlgPolicyEEENS_14__copy_trivialEEENS_11__wrap_iterIP6RecordEESA_S9_Li0EEENS_4pairIT0_T2_EESC_T1_SD_, symObjAddr: 0x6DA0, symBinAddr: 0x1000191CC, symSize: 0xCC }
  - { offsetInCU: 0x653E, offset: 0x31083, size: 0x8, addend: 0x0, symName: __ZNSt3__114__unwrap_rangeB7v160006INS_11__wrap_iterIP6RecordEES3_EENS_4pairIT0_S6_EET_S8_, symObjAddr: 0x6E6C, symBinAddr: 0x100019298, symSize: 0x70 }
  - { offsetInCU: 0x65D0, offset: 0x31115, size: 0x8, addend: 0x0, symName: __ZNSt3__19make_pairB7v160006INS_11__wrap_iterIP6RecordEES3_EENS_4pairINS_18__unwrap_ref_decayIT_E4typeENS6_IT0_E4typeEEEOS7_OSA_, symObjAddr: 0x6F24, symBinAddr: 0x100019350, symSize: 0x38 }
  - { offsetInCU: 0x661F, offset: 0x31164, size: 0x8, addend: 0x0, symName: __ZNSt3__114__rewrap_rangeB7v160006INS_11__wrap_iterIP6RecordEES3_EET_S5_T0_, symObjAddr: 0x6F5C, symBinAddr: 0x100019388, symSize: 0x3C }
  - { offsetInCU: 0x666B, offset: 0x311B0, size: 0x8, addend: 0x0, symName: __ZNSt3__119__copy_trivial_implB7v160006I6RecordS1_EENS_4pairIPT_PT0_EES4_S4_S6_, symObjAddr: 0x706C, symBinAddr: 0x1000193C4, symSize: 0x8C }
  - { offsetInCU: 0x66D3, offset: 0x31218, size: 0x8, addend: 0x0, symName: __ZNSt3__19make_pairB7v160006IRP6RecordS2_EENS_4pairINS_18__unwrap_ref_decayIT_E4typeENS5_IT0_E4typeEEEOS6_OS9_, symObjAddr: 0x70F8, symBinAddr: 0x100019450, symSize: 0x38 }
  - { offsetInCU: 0x67F6, offset: 0x3133B, size: 0x8, addend: 0x0, symName: __ZNSt3__113__rewrap_iterB7v160006INS_11__wrap_iterIP6RecordEES3_NS_18__unwrap_iter_implIS4_Lb1EEEEET_S7_T0_, symObjAddr: 0x7210, symBinAddr: 0x100019568, symSize: 0x4C }
  - { offsetInCU: 0x684B, offset: 0x31390, size: 0x8, addend: 0x0, symName: __ZNSt3__142__uninitialized_allocator_move_if_noexceptB7v160006INS_9allocatorI6RecordEEPS2_S4_S2_vEET1_RT_T0_S8_S5_, symObjAddr: 0x79AC, symBinAddr: 0x100019720, symSize: 0x38 }
  - { offsetInCU: 0x68C7, offset: 0x3140C, size: 0x8, addend: 0x0, symName: __ZNSt3__14moveB7v160006IP6RecordS2_EET0_T_S4_S3_, symObjAddr: 0x80BC, symBinAddr: 0x100019758, symSize: 0x40 }
  - { offsetInCU: 0x6921, offset: 0x31466, size: 0x8, addend: 0x0, symName: __ZNSt3__16__moveB7v160006INS_17_ClassicAlgPolicyEP6RecordS3_S3_EENS_4pairIT0_T2_EES5_T1_S6_, symObjAddr: 0x80FC, symBinAddr: 0x100019798, symSize: 0x44 }
  - { offsetInCU: 0x698D, offset: 0x314D2, size: 0x8, addend: 0x0, symName: __ZNSt3__123__dispatch_copy_or_moveB7v160006INS_17_ClassicAlgPolicyENS_11__move_loopIS1_EENS_14__move_trivialEP6RecordS6_S6_EENS_4pairIT2_T4_EES8_T3_S9_, symObjAddr: 0x8140, symBinAddr: 0x1000197DC, symSize: 0x44 }
  - { offsetInCU: 0x6A0B, offset: 0x31550, size: 0x8, addend: 0x0, symName: __ZNSt3__121__unwrap_and_dispatchB7v160006INS_10__overloadINS_11__move_loopINS_17_ClassicAlgPolicyEEENS_14__move_trivialEEEP6RecordS8_S8_Li0EEENS_4pairIT0_T2_EESA_T1_SB_, symObjAddr: 0x8184, symBinAddr: 0x100019820, symSize: 0xB4 }
  - { offsetInCU: 0x71BC, offset: 0x31D01, size: 0x8, addend: 0x0, symName: __ZNSt3__16vectorI6RecordNS_9allocatorIS1_EEE26__swap_out_circular_bufferERNS_14__split_bufferIS1_RS3_EEPS1_, symObjAddr: 0x5DA8, symBinAddr: 0x1000184DC, symSize: 0x154 }
  - { offsetInCU: 0x92E1, offset: 0x33E26, size: 0x8, addend: 0x0, symName: __ZN7StorageC2Ejj, symObjAddr: 0x0, symBinAddr: 0x100013E6C, symSize: 0xE0 }
  - { offsetInCU: 0x9329, offset: 0x33E6E, size: 0x8, addend: 0x0, symName: __ZNSt3__113unordered_mapIiiNS_4hashIiEENS_8equal_toIiEENS_9allocatorINS_4pairIKiiEEEEEC1B7v160006Ev, symObjAddr: 0xE0, symBinAddr: 0x100013F4C, symSize: 0x2C }
  - { offsetInCU: 0x9353, offset: 0x33E98, size: 0x8, addend: 0x0, symName: __ZNSt3__113unordered_mapIiiNS_4hashIiEENS_8equal_toIiEENS_9allocatorINS_4pairIKiiEEEEEixEOi, symObjAddr: 0x10C, symBinAddr: 0x100013F78, symSize: 0x80 }
  - { offsetInCU: 0x938A, offset: 0x33ECF, size: 0x8, addend: 0x0, symName: __ZNSt3__113unordered_mapIiiNS_4hashIiEENS_8equal_toIiEENS_9allocatorINS_4pairIKiiEEEEED1B7v160006Ev, symObjAddr: 0x18C, symBinAddr: 0x100013FF8, symSize: 0x2C }
  - { offsetInCU: 0x93B4, offset: 0x33EF9, size: 0x8, addend: 0x0, symName: __ZN7StorageC1Ejj, symObjAddr: 0x1B8, symBinAddr: 0x100014024, symSize: 0x3C }
  - { offsetInCU: 0x93FC, offset: 0x33F41, size: 0x8, addend: 0x0, symName: __ZN7Storage14allocateRecordE6Record, symObjAddr: 0x1F4, symBinAddr: 0x100014060, symSize: 0x194 }
  - { offsetInCU: 0x945D, offset: 0x33FA2, size: 0x8, addend: 0x0, symName: __ZN7Storage18findAvailableBlockEi, symObjAddr: 0x388, symBinAddr: 0x1000141F4, symSize: 0x134 }
  - { offsetInCU: 0x9497, offset: 0x33FDC, size: 0x8, addend: 0x0, symName: __ZN7Storage15getBlockAddressEi, symObjAddr: 0x588, symBinAddr: 0x100014328, symSize: 0x2C }
  - { offsetInCU: 0x94D1, offset: 0x34016, size: 0x8, addend: 0x0, symName: __ZNSt3__113unordered_mapIiiNS_4hashIiEENS_8equal_toIiEENS_9allocatorINS_4pairIKiiEEEEE4findB7v160006ERS7_, symObjAddr: 0x5B4, symBinAddr: 0x100014354, symSize: 0x40 }
  - { offsetInCU: 0x9506, offset: 0x3404B, size: 0x8, addend: 0x0, symName: __ZNSt3__113unordered_mapIiiNS_4hashIiEENS_8equal_toIiEENS_9allocatorINS_4pairIKiiEEEEE3endB7v160006Ev, symObjAddr: 0x624, symBinAddr: 0x1000143C4, symSize: 0x38 }
  - { offsetInCU: 0x952C, offset: 0x34071, size: 0x8, addend: 0x0, symName: __ZNKSt3__119__hash_map_iteratorINS_15__hash_iteratorIPNS_11__hash_nodeINS_17__hash_value_typeIiiEEPvEEEEEptB7v160006Ev, symObjAddr: 0x65C, symBinAddr: 0x1000143FC, symSize: 0x2C }
  - { offsetInCU: 0x9552, offset: 0x34097, size: 0x8, addend: 0x0, symName: __ZNSt3__113unordered_mapIiiNS_4hashIiEENS_8equal_toIiEENS_9allocatorINS_4pairIKiiEEEEEixERS7_, symObjAddr: 0x688, symBinAddr: 0x100014428, symSize: 0x80 }
  - { offsetInCU: 0x9589, offset: 0x340CE, size: 0x8, addend: 0x0, symName: __ZN7Storage9readBlockEi, symObjAddr: 0x708, symBinAddr: 0x1000144A8, symSize: 0x68 }
  - { offsetInCU: 0x95DF, offset: 0x34124, size: 0x8, addend: 0x0, symName: __ZN7Storage17printBlockRecordsEv, symObjAddr: 0x770, symBinAddr: 0x100014510, symSize: 0xB8 }
  - { offsetInCU: 0x9658, offset: 0x3419D, size: 0x8, addend: 0x0, symName: __ZNSt3__113unordered_mapIiiNS_4hashIiEENS_8equal_toIiEENS_9allocatorINS_4pairIKiiEEEEE5beginB7v160006Ev, symObjAddr: 0x828, symBinAddr: 0x1000145C8, symSize: 0x38 }
  - { offsetInCU: 0x967E, offset: 0x341C3, size: 0x8, addend: 0x0, symName: __ZNKSt3__119__hash_map_iteratorINS_15__hash_iteratorIPNS_11__hash_nodeINS_17__hash_value_typeIiiEEPvEEEEEdeB7v160006Ev, symObjAddr: 0x860, symBinAddr: 0x100014600, symSize: 0x28 }
  - { offsetInCU: 0x96A4, offset: 0x341E9, size: 0x8, addend: 0x0, symName: __ZNSt3__119__hash_map_iteratorINS_15__hash_iteratorIPNS_11__hash_nodeINS_17__hash_value_typeIiiEEPvEEEEEppB7v160006Ev, symObjAddr: 0x888, symBinAddr: 0x100014628, symSize: 0x2C }
  - { offsetInCU: 0x96CA, offset: 0x3420F, size: 0x8, addend: 0x0, symName: __ZN7Storage14readAllRecordsEv, symObjAddr: 0x8B4, symBinAddr: 0x100014654, symSize: 0x16C }
  - { offsetInCU: 0x9731, offset: 0x34276, size: 0x8, addend: 0x0, symName: __ZN7Storage20readRecordsFromBlockEi, symObjAddr: 0xA4C, symBinAddr: 0x1000147C0, symSize: 0x2A4 }
  - { offsetInCU: 0x988C, offset: 0x343D1, size: 0x8, addend: 0x0, symName: __ZNSt3__16vectorI6RecordNS_9allocatorIS1_EEE6insertINS_11__wrap_iterIPS1_EELi0EEES8_NS6_IPKS1_EET_SC_, symObjAddr: 0xCF0, symBinAddr: 0x100014A64, symSize: 0x328 }
  - { offsetInCU: 0x99AB, offset: 0x344F0, size: 0x8, addend: 0x0, symName: __ZNSt3__111__wrap_iterIPK6RecordEC1B7v160006IPS1_EERKNS0_IT_EEPNS_9enable_ifIXsr14is_convertibleIS7_S3_EE5valueEvE4typeE, symObjAddr: 0x1048, symBinAddr: 0x100014D8C, symSize: 0x3C }
  - { offsetInCU: 0x99F6, offset: 0x3453B, size: 0x8, addend: 0x0, symName: __ZN7Storage14recordsInBlockEi, symObjAddr: 0x10E0, symBinAddr: 0x100014DC8, symSize: 0x8C }
  - { offsetInCU: 0x9A3A, offset: 0x3457F, size: 0x8, addend: 0x0, symName: __ZN7Storage16getRecordsStoredEv, symObjAddr: 0x11D8, symBinAddr: 0x100014E54, symSize: 0x18 }
  - { offsetInCU: 0x9A62, offset: 0x345A7, size: 0x8, addend: 0x0, symName: __ZN7Storage13getBlocksUsedEv, symObjAddr: 0x11F0, symBinAddr: 0x100014E6C, symSize: 0x1C }
  - { offsetInCU: 0x9A8A, offset: 0x345CF, size: 0x8, addend: 0x0, symName: __ZN7Storage18getAvailableBlocksEv, symObjAddr: 0x120C, symBinAddr: 0x100014E88, symSize: 0x18 }
  - { offsetInCU: 0x9AB2, offset: 0x345F7, size: 0x8, addend: 0x0, symName: __ZN7Storage12getBlockSizeEv, symObjAddr: 0x1224, symBinAddr: 0x100014EA0, symSize: 0x18 }
  - { offsetInCU: 0x9ADA, offset: 0x3461F, size: 0x8, addend: 0x0, symName: __ZN7StorageD2Ev, symObjAddr: 0x123C, symBinAddr: 0x100014EB8, symSize: 0x44 }
  - { offsetInCU: 0x9B06, offset: 0x3464B, size: 0x8, addend: 0x0, symName: __ZN7StorageD1Ev, symObjAddr: 0x128C, symBinAddr: 0x100014EFC, symSize: 0x2C }
  - { offsetInCU: 0x9B32, offset: 0x34677, size: 0x8, addend: 0x0, symName: __ZNSt3__113unordered_mapIiiNS_4hashIiEENS_8equal_toIiEENS_9allocatorINS_4pairIKiiEEEEEC2B7v160006Ev, symObjAddr: 0x12B8, symBinAddr: 0x100014F28, symSize: 0x3C }
  - { offsetInCU: 0x9B5C, offset: 0x346A1, size: 0x8, addend: 0x0, symName: __ZNSt3__112__hash_tableINS_17__hash_value_typeIiiEENS_22__unordered_map_hasherIiS2_NS_4hashIiEENS_8equal_toIiEELb1EEENS_21__unordered_map_equalIiS2_S7_S5_Lb1EEENS_9allocatorIS2_EEEC1Ev, symObjAddr: 0x12F4, symBinAddr: 0x100014F64, symSize: 0x2C }
  - { offsetInCU: 0x9B88, offset: 0x346CD, size: 0x8, addend: 0x0, symName: __ZNSt3__112__hash_tableINS_17__hash_value_typeIiiEENS_22__unordered_map_hasherIiS2_NS_4hashIiEENS_8equal_toIiEELb1EEENS_21__unordered_map_equalIiS2_S7_S5_Lb1EEENS_9allocatorIS2_EEEC2Ev, symObjAddr: 0x1330, symBinAddr: 0x100014FA0, symSize: 0x7C }
  - { offsetInCU: 0x9BB4, offset: 0x346F9, size: 0x8, addend: 0x0, symName: __ZNSt3__110unique_ptrIA_PNS_16__hash_node_baseIPNS_11__hash_nodeINS_17__hash_value_typeIiiEEPvEEEENS_25__bucket_list_deallocatorINS_9allocatorIS9_EEEEEC1B7v160006ILb1EvEEv, symObjAddr: 0x13AC, symBinAddr: 0x10001501C, symSize: 0x2C }
  - { offsetInCU: 0x9BE9, offset: 0x3472E, size: 0x8, addend: 0x0, symName: __ZNSt3__117__compressed_pairINS_16__hash_node_baseIPNS_11__hash_nodeINS_17__hash_value_typeIiiEEPvEEEENS_9allocatorIS6_EEEC1B7v160006ILb1EvEEv, symObjAddr: 0x13D8, symBinAddr: 0x100015048, symSize: 0x2C }
  - { offsetInCU: 0x9C24, offset: 0x34769, size: 0x8, addend: 0x0, symName: __ZNSt3__117__compressed_pairImNS_22__unordered_map_hasherIiNS_17__hash_value_typeIiiEENS_4hashIiEENS_8equal_toIiEELb1EEEEC1B7v160006IiNS_18__default_init_tagEEEOT_OT0_, symObjAddr: 0x1404, symBinAddr: 0x100015074, symSize: 0x3C }
  - { offsetInCU: 0x9C82, offset: 0x347C7, size: 0x8, addend: 0x0, symName: __ZNSt3__117__compressed_pairIfNS_21__unordered_map_equalIiNS_17__hash_value_typeIiiEENS_8equal_toIiEENS_4hashIiEELb1EEEEC1B7v160006IfNS_18__default_init_tagEEEOT_OT0_, symObjAddr: 0x1440, symBinAddr: 0x1000150B0, symSize: 0x3C }
  - { offsetInCU: 0x9CDA, offset: 0x3481F, size: 0x8, addend: 0x0, symName: __ZNSt3__110unique_ptrIA_PNS_16__hash_node_baseIPNS_11__hash_nodeINS_17__hash_value_typeIiiEEPvEEEENS_25__bucket_list_deallocatorINS_9allocatorIS9_EEEEEC2B7v160006ILb1EvEEv, symObjAddr: 0x147C, symBinAddr: 0x1000150EC, symSize: 0x3C }
  - { offsetInCU: 0x9D15, offset: 0x3485A, size: 0x8, addend: 0x0, symName: __ZNSt3__117__compressed_pairIPPNS_16__hash_node_baseIPNS_11__hash_nodeINS_17__hash_value_typeIiiEEPvEEEENS_25__bucket_list_deallocatorINS_9allocatorIS9_EEEEEC1B7v160006INS_16__value_init_tagESH_EEOT_OT0_, symObjAddr: 0x14B8, symBinAddr: 0x100015128, symSize: 0x3C }
  - { offsetInCU: 0x9D6D, offset: 0x348B2, size: 0x8, addend: 0x0, symName: __ZNSt3__117__compressed_pairIPPNS_16__hash_node_baseIPNS_11__hash_nodeINS_17__hash_value_typeIiiEEPvEEEENS_25__bucket_list_deallocatorINS_9allocatorIS9_EEEEEC2B7v160006INS_16__value_init_tagESH_EEOT_OT0_, symObjAddr: 0x14F4, symBinAddr: 0x100015164, symSize: 0x40 }
  - { offsetInCU: 0x9DC5, offset: 0x3490A, size: 0x8, addend: 0x0, symName: __ZNSt3__122__compressed_pair_elemIPPNS_16__hash_node_baseIPNS_11__hash_nodeINS_17__hash_value_typeIiiEEPvEEEELi0ELb0EEC2B7v160006ENS_16__value_init_tagE, symObjAddr: 0x1534, symBinAddr: 0x1000151A4, symSize: 0x18 }
  - { offsetInCU: 0x9DF9, offset: 0x3493E, size: 0x8, addend: 0x0, symName: __ZNSt3__122__compressed_pair_elemINS_25__bucket_list_deallocatorINS_9allocatorIPNS_16__hash_node_baseIPNS_11__hash_nodeINS_17__hash_value_typeIiiEEPvEEEEEEEELi1ELb0EEC2B7v160006ENS_16__value_init_tagE, symObjAddr: 0x154C, symBinAddr: 0x1000151BC, symSize: 0x2C }
  - { offsetInCU: 0x9E2D, offset: 0x34972, size: 0x8, addend: 0x0, symName: __ZNSt3__125__bucket_list_deallocatorINS_9allocatorIPNS_16__hash_node_baseIPNS_11__hash_nodeINS_17__hash_value_typeIiiEEPvEEEEEEEC1B7v160006Ev, symObjAddr: 0x1578, symBinAddr: 0x1000151E8, symSize: 0x2C }
  - { offsetInCU: 0x9E57, offset: 0x3499C, size: 0x8, addend: 0x0, symName: __ZNSt3__125__bucket_list_deallocatorINS_9allocatorIPNS_16__hash_node_baseIPNS_11__hash_nodeINS_17__hash_value_typeIiiEEPvEEEEEEEC2B7v160006Ev, symObjAddr: 0x15A4, symBinAddr: 0x100015214, symSize: 0x40 }
  - { offsetInCU: 0x9E81, offset: 0x349C6, size: 0x8, addend: 0x0, symName: __ZNSt3__117__compressed_pairImNS_9allocatorIPNS_16__hash_node_baseIPNS_11__hash_nodeINS_17__hash_value_typeIiiEEPvEEEEEEEC1B7v160006IiNS_18__default_init_tagEEEOT_OT0_, symObjAddr: 0x15E4, symBinAddr: 0x100015254, symSize: 0x3C }
  - { offsetInCU: 0x9ED9, offset: 0x34A1E, size: 0x8, addend: 0x0, symName: __ZNSt3__117__compressed_pairImNS_9allocatorIPNS_16__hash_node_baseIPNS_11__hash_nodeINS_17__hash_value_typeIiiEEPvEEEEEEEC2B7v160006IiNS_18__default_init_tagEEEOT_OT0_, symObjAddr: 0x1620, symBinAddr: 0x100015290, symSize: 0x40 }
  - { offsetInCU: 0x9F31, offset: 0x34A76, size: 0x8, addend: 0x0, symName: __ZNSt3__122__compressed_pair_elemINS_9allocatorIPNS_16__hash_node_baseIPNS_11__hash_nodeINS_17__hash_value_typeIiiEEPvEEEEEELi1ELb1EEC2B7v160006ENS_18__default_init_tagE, symObjAddr: 0x1684, symBinAddr: 0x1000152D0, symSize: 0x2C }
  - { offsetInCU: 0x9F65, offset: 0x34AAA, size: 0x8, addend: 0x0, symName: __ZNSt3__19allocatorIPNS_16__hash_node_baseIPNS_11__hash_nodeINS_17__hash_value_typeIiiEEPvEEEEEC2B7v160006Ev, symObjAddr: 0x16B0, symBinAddr: 0x1000152FC, symSize: 0x2C }
  - { offsetInCU: 0x9F8F, offset: 0x34AD4, size: 0x8, addend: 0x0, symName: __ZNSt3__116__non_trivial_ifILb1ENS_9allocatorIPNS_16__hash_node_baseIPNS_11__hash_nodeINS_17__hash_value_typeIiiEEPvEEEEEEEC2B7v160006Ev, symObjAddr: 0x16DC, symBinAddr: 0x100015328, symSize: 0x14 }
  - { offsetInCU: 0x9FB9, offset: 0x34AFE, size: 0x8, addend: 0x0, symName: __ZNSt3__117__compressed_pairINS_16__hash_node_baseIPNS_11__hash_nodeINS_17__hash_value_typeIiiEEPvEEEENS_9allocatorIS6_EEEC2B7v160006ILb1EvEEv, symObjAddr: 0x16F0, symBinAddr: 0x10001533C, symSize: 0x34 }
  - { offsetInCU: 0x9FEE, offset: 0x34B33, size: 0x8, addend: 0x0, symName: __ZNSt3__122__compressed_pair_elemINS_16__hash_node_baseIPNS_11__hash_nodeINS_17__hash_value_typeIiiEEPvEEEELi0ELb0EEC2B7v160006ENS_16__value_init_tagE, symObjAddr: 0x1724, symBinAddr: 0x100015370, symSize: 0x2C }
  - { offsetInCU: 0xA022, offset: 0x34B67, size: 0x8, addend: 0x0, symName: __ZNSt3__122__compressed_pair_elemINS_9allocatorINS_11__hash_nodeINS_17__hash_value_typeIiiEEPvEEEELi1ELb1EEC2B7v160006ENS_16__value_init_tagE, symObjAddr: 0x1750, symBinAddr: 0x10001539C, symSize: 0x2C }
  - { offsetInCU: 0xA056, offset: 0x34B9B, size: 0x8, addend: 0x0, symName: __ZNSt3__116__hash_node_baseIPNS_11__hash_nodeINS_17__hash_value_typeIiiEEPvEEEC1B7v160006Ev, symObjAddr: 0x177C, symBinAddr: 0x1000153C8, symSize: 0x2C }
  - { offsetInCU: 0xA080, offset: 0x34BC5, size: 0x8, addend: 0x0, symName: __ZNSt3__116__hash_node_baseIPNS_11__hash_nodeINS_17__hash_value_typeIiiEEPvEEEC2B7v160006Ev, symObjAddr: 0x17A8, symBinAddr: 0x1000153F4, symSize: 0x18 }
  - { offsetInCU: 0xA0AA, offset: 0x34BEF, size: 0x8, addend: 0x0, symName: __ZNSt3__19allocatorINS_11__hash_nodeINS_17__hash_value_typeIiiEEPvEEEC2B7v160006Ev, symObjAddr: 0x17C0, symBinAddr: 0x10001540C, symSize: 0x2C }
  - { offsetInCU: 0xA0D4, offset: 0x34C19, size: 0x8, addend: 0x0, symName: __ZNSt3__116__non_trivial_ifILb1ENS_9allocatorINS_11__hash_nodeINS_17__hash_value_typeIiiEEPvEEEEEC2B7v160006Ev, symObjAddr: 0x17EC, symBinAddr: 0x100015438, symSize: 0x14 }
  - { offsetInCU: 0xA0FE, offset: 0x34C43, size: 0x8, addend: 0x0, symName: __ZNSt3__117__compressed_pairImNS_22__unordered_map_hasherIiNS_17__hash_value_typeIiiEENS_4hashIiEENS_8equal_toIiEELb1EEEEC2B7v160006IiNS_18__default_init_tagEEEOT_OT0_, symObjAddr: 0x1800, symBinAddr: 0x10001544C, symSize: 0x40 }
  - { offsetInCU: 0xA156, offset: 0x34C9B, size: 0x8, addend: 0x0, symName: __ZNSt3__122__compressed_pair_elemINS_22__unordered_map_hasherIiNS_17__hash_value_typeIiiEENS_4hashIiEENS_8equal_toIiEELb1EEELi1ELb1EEC2B7v160006ENS_18__default_init_tagE, symObjAddr: 0x1840, symBinAddr: 0x10001548C, symSize: 0x2C }
  - { offsetInCU: 0xA18A, offset: 0x34CCF, size: 0x8, addend: 0x0, symName: __ZNSt3__122__unordered_map_hasherIiNS_17__hash_value_typeIiiEENS_4hashIiEENS_8equal_toIiEELb1EEC2B7v160006Ev, symObjAddr: 0x186C, symBinAddr: 0x1000154B8, symSize: 0x14 }
  - { offsetInCU: 0xA1B4, offset: 0x34CF9, size: 0x8, addend: 0x0, symName: __ZNSt3__117__compressed_pairIfNS_21__unordered_map_equalIiNS_17__hash_value_typeIiiEENS_8equal_toIiEENS_4hashIiEELb1EEEEC2B7v160006IfNS_18__default_init_tagEEEOT_OT0_, symObjAddr: 0x1880, symBinAddr: 0x1000154CC, symSize: 0x40 }
  - { offsetInCU: 0xA20C, offset: 0x34D51, size: 0x8, addend: 0x0, symName: __ZNSt3__122__compressed_pair_elemIfLi0ELb0EEC2B7v160006IfvEEOT_, symObjAddr: 0x18C0, symBinAddr: 0x10001550C, symSize: 0x24 }
  - { offsetInCU: 0xA24E, offset: 0x34D93, size: 0x8, addend: 0x0, symName: __ZNSt3__122__compressed_pair_elemINS_21__unordered_map_equalIiNS_17__hash_value_typeIiiEENS_8equal_toIiEENS_4hashIiEELb1EEELi1ELb1EEC2B7v160006ENS_18__default_init_tagE, symObjAddr: 0x18E4, symBinAddr: 0x100015530, symSize: 0x2C }
  - { offsetInCU: 0xA282, offset: 0x34DC7, size: 0x8, addend: 0x0, symName: __ZNSt3__121__unordered_map_equalIiNS_17__hash_value_typeIiiEENS_8equal_toIiEENS_4hashIiEELb1EEC2B7v160006Ev, symObjAddr: 0x1910, symBinAddr: 0x10001555C, symSize: 0x14 }
  - { offsetInCU: 0xA2AC, offset: 0x34DF1, size: 0x8, addend: 0x0, symName: __ZNSt3__113unordered_mapIiiNS_4hashIiEENS_8equal_toIiEENS_9allocatorINS_4pairIKiiEEEEED2B7v160006Ev, symObjAddr: 0x1924, symBinAddr: 0x100015570, symSize: 0x2C }
  - { offsetInCU: 0xA2D6, offset: 0x34E1B, size: 0x8, addend: 0x0, symName: __ZNSt3__112__hash_tableINS_17__hash_value_typeIiiEENS_22__unordered_map_hasherIiS2_NS_4hashIiEENS_8equal_toIiEELb1EEENS_21__unordered_map_equalIiS2_S7_S5_Lb1EEENS_9allocatorIS2_EEED1Ev, symObjAddr: 0x1950, symBinAddr: 0x10001559C, symSize: 0x2C }
  - { offsetInCU: 0xA302, offset: 0x34E47, size: 0x8, addend: 0x0, symName: __ZNSt3__112__hash_tableINS_17__hash_value_typeIiiEENS_22__unordered_map_hasherIiS2_NS_4hashIiEENS_8equal_toIiEELb1EEENS_21__unordered_map_equalIiS2_S7_S5_Lb1EEENS_9allocatorIS2_EEED2Ev, symObjAddr: 0x197C, symBinAddr: 0x1000155C8, symSize: 0x58 }
  - { offsetInCU: 0xA32E, offset: 0x34E73, size: 0x8, addend: 0x0, symName: __ZNSt3__112__hash_tableINS_17__hash_value_typeIiiEENS_22__unordered_map_hasherIiS2_NS_4hashIiEENS_8equal_toIiEELb1EEENS_21__unordered_map_equalIiS2_S7_S5_Lb1EEENS_9allocatorIS2_EEE17__deallocate_nodeEPNS_16__hash_node_baseIPNS_11__hash_nodeIS2_PvEEEE, symObjAddr: 0x19D4, symBinAddr: 0x100015620, symSize: 0xA8 }
  - { offsetInCU: 0xA398, offset: 0x34EDD, size: 0x8, addend: 0x0, symName: __ZNSt3__117__compressed_pairINS_16__hash_node_baseIPNS_11__hash_nodeINS_17__hash_value_typeIiiEEPvEEEENS_9allocatorIS6_EEE5firstB7v160006Ev, symObjAddr: 0x1A7C, symBinAddr: 0x1000156C8, symSize: 0x24 }
  - { offsetInCU: 0xA3BE, offset: 0x34F03, size: 0x8, addend: 0x0, symName: __ZNSt3__110unique_ptrIA_PNS_16__hash_node_baseIPNS_11__hash_nodeINS_17__hash_value_typeIiiEEPvEEEENS_25__bucket_list_deallocatorINS_9allocatorIS9_EEEEED1B7v160006Ev, symObjAddr: 0x1AB0, symBinAddr: 0x1000156FC, symSize: 0x2C }
  - { offsetInCU: 0xA3E8, offset: 0x34F2D, size: 0x8, addend: 0x0, symName: __ZNSt3__112__hash_tableINS_17__hash_value_typeIiiEENS_22__unordered_map_hasherIiS2_NS_4hashIiEENS_8equal_toIiEELb1EEENS_21__unordered_map_equalIiS2_S7_S5_Lb1EEENS_9allocatorIS2_EEE12__node_allocB7v160006Ev, symObjAddr: 0x1ADC, symBinAddr: 0x100015728, symSize: 0x28 }
  - { offsetInCU: 0xA40E, offset: 0x34F53, size: 0x8, addend: 0x0, symName: __ZNSt3__116__hash_node_baseIPNS_11__hash_nodeINS_17__hash_value_typeIiiEEPvEEE8__upcastB7v160006Ev, symObjAddr: 0x1B04, symBinAddr: 0x100015750, symSize: 0x24 }
  - { offsetInCU: 0xA434, offset: 0x34F79, size: 0x8, addend: 0x0, symName: __ZNSt3__116allocator_traitsINS_9allocatorINS_11__hash_nodeINS_17__hash_value_typeIiiEEPvEEEEE7destroyB7v160006INS_4pairIKiiEEvvEEvRS7_PT_, symObjAddr: 0x1B28, symBinAddr: 0x100015774, symSize: 0x14 }
  - { offsetInCU: 0xA46E, offset: 0x34FB3, size: 0x8, addend: 0x0, symName: __ZNSt3__122__hash_key_value_typesINS_17__hash_value_typeIiiEEE9__get_ptrB7v160006ERS2_, symObjAddr: 0x1B3C, symBinAddr: 0x100015788, symSize: 0x24 }
  - { offsetInCU: 0xA491, offset: 0x34FD6, size: 0x8, addend: 0x0, symName: __ZNSt3__116allocator_traitsINS_9allocatorINS_11__hash_nodeINS_17__hash_value_typeIiiEEPvEEEEE10deallocateB7v160006ERS7_PS6_m, symObjAddr: 0x1B60, symBinAddr: 0x1000157AC, symSize: 0x34 }
  - { offsetInCU: 0xA4D3, offset: 0x35018, size: 0x8, addend: 0x0, symName: __ZNSt3__117__compressed_pairINS_16__hash_node_baseIPNS_11__hash_nodeINS_17__hash_value_typeIiiEEPvEEEENS_9allocatorIS6_EEE6secondB7v160006Ev, symObjAddr: 0x1B94, symBinAddr: 0x1000157E0, symSize: 0x24 }
  - { offsetInCU: 0xA4F9, offset: 0x3503E, size: 0x8, addend: 0x0, symName: __ZNSt3__122__compressed_pair_elemINS_9allocatorINS_11__hash_nodeINS_17__hash_value_typeIiiEEPvEEEELi1ELb1EE5__getB7v160006Ev, symObjAddr: 0x1BB8, symBinAddr: 0x100015804, symSize: 0x14 }
  - { offsetInCU: 0xA51F, offset: 0x35064, size: 0x8, addend: 0x0, symName: __ZNSt3__114pointer_traitsIPNS_16__hash_node_baseIPNS_11__hash_nodeINS_17__hash_value_typeIiiEEPvEEEEE10pointer_toB7v160006ERS8_, symObjAddr: 0x1BCC, symBinAddr: 0x100015818, symSize: 0x14 }
  - { offsetInCU: 0xA542, offset: 0x35087, size: 0x8, addend: 0x0, symName: __ZNSt3__117__hash_value_typeIiiE11__get_valueB7v160006Ev, symObjAddr: 0x1BE0, symBinAddr: 0x10001582C, symSize: 0x14 }
  - { offsetInCU: 0xA568, offset: 0x350AD, size: 0x8, addend: 0x0, symName: __ZNSt3__19allocatorINS_11__hash_nodeINS_17__hash_value_typeIiiEEPvEEE10deallocateB7v160006EPS5_m, symObjAddr: 0x1BF4, symBinAddr: 0x100015840, symSize: 0x44 }
  - { offsetInCU: 0xA5AA, offset: 0x350EF, size: 0x8, addend: 0x0, symName: __ZNSt3__122__compressed_pair_elemINS_16__hash_node_baseIPNS_11__hash_nodeINS_17__hash_value_typeIiiEEPvEEEELi0ELb0EE5__getB7v160006Ev, symObjAddr: 0x1CB4, symBinAddr: 0x100015884, symSize: 0x14 }
  - { offsetInCU: 0xA5D0, offset: 0x35115, size: 0x8, addend: 0x0, symName: __ZNSt3__110unique_ptrIA_PNS_16__hash_node_baseIPNS_11__hash_nodeINS_17__hash_value_typeIiiEEPvEEEENS_25__bucket_list_deallocatorINS_9allocatorIS9_EEEEED2B7v160006Ev, symObjAddr: 0x1CC8, symBinAddr: 0x100015898, symSize: 0x30 }
  - { offsetInCU: 0xA5FA, offset: 0x3513F, size: 0x8, addend: 0x0, symName: __ZNSt3__110unique_ptrIA_PNS_16__hash_node_baseIPNS_11__hash_nodeINS_17__hash_value_typeIiiEEPvEEEENS_25__bucket_list_deallocatorINS_9allocatorIS9_EEEEE5resetB7v160006EDn, symObjAddr: 0x1CF8, symBinAddr: 0x1000158C8, symSize: 0x6C }
  - { offsetInCU: 0xA63A, offset: 0x3517F, size: 0x8, addend: 0x0, symName: __ZNSt3__117__compressed_pairIPPNS_16__hash_node_baseIPNS_11__hash_nodeINS_17__hash_value_typeIiiEEPvEEEENS_25__bucket_list_deallocatorINS_9allocatorIS9_EEEEE5firstB7v160006Ev, symObjAddr: 0x1D64, symBinAddr: 0x100015934, symSize: 0x24 }
  - { offsetInCU: 0xA660, offset: 0x351A5, size: 0x8, addend: 0x0, symName: __ZNSt3__117__compressed_pairIPPNS_16__hash_node_baseIPNS_11__hash_nodeINS_17__hash_value_typeIiiEEPvEEEENS_25__bucket_list_deallocatorINS_9allocatorIS9_EEEEE6secondB7v160006Ev, symObjAddr: 0x1D88, symBinAddr: 0x100015958, symSize: 0x28 }
  - { offsetInCU: 0xA686, offset: 0x351CB, size: 0x8, addend: 0x0, symName: __ZNSt3__125__bucket_list_deallocatorINS_9allocatorIPNS_16__hash_node_baseIPNS_11__hash_nodeINS_17__hash_value_typeIiiEEPvEEEEEEEclB7v160006EPSA_, symObjAddr: 0x1DB0, symBinAddr: 0x100015980, symSize: 0x58 }
  - { offsetInCU: 0xA6BB, offset: 0x35200, size: 0x8, addend: 0x0, symName: __ZNSt3__122__compressed_pair_elemIPPNS_16__hash_node_baseIPNS_11__hash_nodeINS_17__hash_value_typeIiiEEPvEEEELi0ELb0EE5__getB7v160006Ev, symObjAddr: 0x1E08, symBinAddr: 0x1000159D8, symSize: 0x14 }
  - { offsetInCU: 0xA6E1, offset: 0x35226, size: 0x8, addend: 0x0, symName: __ZNSt3__122__compressed_pair_elemINS_25__bucket_list_deallocatorINS_9allocatorIPNS_16__hash_node_baseIPNS_11__hash_nodeINS_17__hash_value_typeIiiEEPvEEEEEEEELi1ELb0EE5__getB7v160006Ev, symObjAddr: 0x1E1C, symBinAddr: 0x1000159EC, symSize: 0x14 }
  - { offsetInCU: 0xA707, offset: 0x3524C, size: 0x8, addend: 0x0, symName: __ZNSt3__116allocator_traitsINS_9allocatorIPNS_16__hash_node_baseIPNS_11__hash_nodeINS_17__hash_value_typeIiiEEPvEEEEEEE10deallocateB7v160006ERSB_PSA_m, symObjAddr: 0x1E30, symBinAddr: 0x100015A00, symSize: 0x34 }
  - { offsetInCU: 0xA749, offset: 0x3528E, size: 0x8, addend: 0x0, symName: __ZNSt3__125__bucket_list_deallocatorINS_9allocatorIPNS_16__hash_node_baseIPNS_11__hash_nodeINS_17__hash_value_typeIiiEEPvEEEEEEE7__allocB7v160006Ev, symObjAddr: 0x1E64, symBinAddr: 0x100015A34, symSize: 0x24 }
  - { offsetInCU: 0xA76F, offset: 0x352B4, size: 0x8, addend: 0x0, symName: __ZNSt3__125__bucket_list_deallocatorINS_9allocatorIPNS_16__hash_node_baseIPNS_11__hash_nodeINS_17__hash_value_typeIiiEEPvEEEEEEE4sizeB7v160006Ev, symObjAddr: 0x1E88, symBinAddr: 0x100015A58, symSize: 0x24 }
  - { offsetInCU: 0xA795, offset: 0x352DA, size: 0x8, addend: 0x0, symName: __ZNSt3__19allocatorIPNS_16__hash_node_baseIPNS_11__hash_nodeINS_17__hash_value_typeIiiEEPvEEEEE10deallocateB7v160006EPS9_m, symObjAddr: 0x1EAC, symBinAddr: 0x100015A7C, symSize: 0x40 }
  - { offsetInCU: 0xA7D7, offset: 0x3531C, size: 0x8, addend: 0x0, symName: __ZNSt3__117__compressed_pairImNS_9allocatorIPNS_16__hash_node_baseIPNS_11__hash_nodeINS_17__hash_value_typeIiiEEPvEEEEEEE6secondB7v160006Ev, symObjAddr: 0x1EEC, symBinAddr: 0x100015ABC, symSize: 0x24 }
  - { offsetInCU: 0xA7FD, offset: 0x35342, size: 0x8, addend: 0x0, symName: __ZNSt3__122__compressed_pair_elemINS_9allocatorIPNS_16__hash_node_baseIPNS_11__hash_nodeINS_17__hash_value_typeIiiEEPvEEEEEELi1ELb1EE5__getB7v160006Ev, symObjAddr: 0x1F10, symBinAddr: 0x100015AE0, symSize: 0x14 }
  - { offsetInCU: 0xA823, offset: 0x35368, size: 0x8, addend: 0x0, symName: __ZNSt3__117__compressed_pairImNS_9allocatorIPNS_16__hash_node_baseIPNS_11__hash_nodeINS_17__hash_value_typeIiiEEPvEEEEEEE5firstB7v160006Ev, symObjAddr: 0x1F24, symBinAddr: 0x100015AF4, symSize: 0x24 }
  - { offsetInCU: 0xA859, offset: 0x3539E, size: 0x8, addend: 0x0, symName: __ZNSt3__112__hash_tableINS_17__hash_value_typeIiiEENS_22__unordered_map_hasherIiS2_NS_4hashIiEENS_8equal_toIiEELb1EEENS_21__unordered_map_equalIiS2_S7_S5_Lb1EEENS_9allocatorIS2_EEE25__emplace_unique_key_argsIiJRKNS_21piecewise_construct_tENS_5tupleIJOiEEENSI_IJEEEEEENS_4pairINS_15__hash_iteratorIPNS_11__hash_nodeIS2_PvEEEEbEERKT_DpOT0_, symObjAddr: 0x1F5C, symBinAddr: 0x100015B18, symSize: 0x4D0 }
  - { offsetInCU: 0xA962, offset: 0x354A7, size: 0x8, addend: 0x0, symName: __ZNKSt3__115__hash_iteratorIPNS_11__hash_nodeINS_17__hash_value_typeIiiEEPvEEEptB7v160006Ev, symObjAddr: 0x245C, symBinAddr: 0x100016014, symSize: 0x30 }
  - { offsetInCU: 0xA988, offset: 0x354CD, size: 0x8, addend: 0x0, symName: __ZNSt3__112__hash_tableINS_17__hash_value_typeIiiEENS_22__unordered_map_hasherIiS2_NS_4hashIiEENS_8equal_toIiEELb1EEENS_21__unordered_map_equalIiS2_S7_S5_Lb1EEENS_9allocatorIS2_EEE13hash_functionB7v160006Ev, symObjAddr: 0x248C, symBinAddr: 0x100016044, symSize: 0x28 }
  - { offsetInCU: 0xA9AE, offset: 0x354F3, size: 0x8, addend: 0x0, symName: __ZNKSt3__122__unordered_map_hasherIiNS_17__hash_value_typeIiiEENS_4hashIiEENS_8equal_toIiEELb1EEclB7v160006ERKi, symObjAddr: 0x24B4, symBinAddr: 0x10001606C, symSize: 0x30 }
  - { offsetInCU: 0xA9E3, offset: 0x35528, size: 0x8, addend: 0x0, symName: __ZNKSt3__112__hash_tableINS_17__hash_value_typeIiiEENS_22__unordered_map_hasherIiS2_NS_4hashIiEENS_8equal_toIiEELb1EEENS_21__unordered_map_equalIiS2_S7_S5_Lb1EEENS_9allocatorIS2_EEE12bucket_countB7v160006Ev, symObjAddr: 0x24E4, symBinAddr: 0x10001609C, symSize: 0x28 }
  - { offsetInCU: 0xAA09, offset: 0x3554E, size: 0x8, addend: 0x0, symName: __ZNKSt3__110unique_ptrIA_PNS_16__hash_node_baseIPNS_11__hash_nodeINS_17__hash_value_typeIiiEEPvEEEENS_25__bucket_list_deallocatorINS_9allocatorIS9_EEEEEixB7v160006Em, symObjAddr: 0x25A4, symBinAddr: 0x10001615C, symSize: 0x34 }
  - { offsetInCU: 0xAA3E, offset: 0x35583, size: 0x8, addend: 0x0, symName: __ZNKSt3__116__hash_node_baseIPNS_11__hash_nodeINS_17__hash_value_typeIiiEEPvEEE6__hashB7v160006Ev, symObjAddr: 0x25D8, symBinAddr: 0x100016190, symSize: 0x18 }
  - { offsetInCU: 0xAA64, offset: 0x355A9, size: 0x8, addend: 0x0, symName: __ZNSt3__112__hash_tableINS_17__hash_value_typeIiiEENS_22__unordered_map_hasherIiS2_NS_4hashIiEENS_8equal_toIiEELb1EEENS_21__unordered_map_equalIiS2_S7_S5_Lb1EEENS_9allocatorIS2_EEE6key_eqB7v160006Ev, symObjAddr: 0x25F0, symBinAddr: 0x1000161A8, symSize: 0x28 }
  - { offsetInCU: 0xAA8A, offset: 0x355CF, size: 0x8, addend: 0x0, symName: __ZNKSt3__121__unordered_map_equalIiNS_17__hash_value_typeIiiEENS_8equal_toIiEENS_4hashIiEELb1EEclB7v160006ERKS2_RKi, symObjAddr: 0x2618, symBinAddr: 0x1000161D0, symSize: 0x48 }
  - { offsetInCU: 0xAACE, offset: 0x35613, size: 0x8, addend: 0x0, symName: __ZNSt3__112__hash_tableINS_17__hash_value_typeIiiEENS_22__unordered_map_hasherIiS2_NS_4hashIiEENS_8equal_toIiEELb1EEENS_21__unordered_map_equalIiS2_S7_S5_Lb1EEENS_9allocatorIS2_EEE21__construct_node_hashIRKNS_21piecewise_construct_tEJNS_5tupleIJOiEEENSI_IJEEEEEENS_10unique_ptrINS_11__hash_nodeIS2_PvEENS_22__hash_node_destructorINSB_ISP_EEEEEEmOT_DpOT0_, symObjAddr: 0x2660, symBinAddr: 0x100016218, symSize: 0x150 }
  - { offsetInCU: 0xAB6A, offset: 0x356AF, size: 0x8, addend: 0x0, symName: __ZNSt3__112__hash_tableINS_17__hash_value_typeIiiEENS_22__unordered_map_hasherIiS2_NS_4hashIiEENS_8equal_toIiEELb1EEENS_21__unordered_map_equalIiS2_S7_S5_Lb1EEENS_9allocatorIS2_EEE4sizeB7v160006Ev, symObjAddr: 0x27B0, symBinAddr: 0x100016368, symSize: 0x28 }
  - { offsetInCU: 0xAB90, offset: 0x356D5, size: 0x8, addend: 0x0, symName: __ZNSt3__112__hash_tableINS_17__hash_value_typeIiiEENS_22__unordered_map_hasherIiS2_NS_4hashIiEENS_8equal_toIiEELb1EEENS_21__unordered_map_equalIiS2_S7_S5_Lb1EEENS_9allocatorIS2_EEE15max_load_factorB7v160006Ev, symObjAddr: 0x27D8, symBinAddr: 0x100016390, symSize: 0x28 }
  - { offsetInCU: 0xABB6, offset: 0x356FB, size: 0x8, addend: 0x0, symName: __ZNSt3__112__hash_tableINS_17__hash_value_typeIiiEENS_22__unordered_map_hasherIiS2_NS_4hashIiEENS_8equal_toIiEELb1EEENS_21__unordered_map_equalIiS2_S7_S5_Lb1EEENS_9allocatorIS2_EEE15__rehash_uniqueB7v160006Em, symObjAddr: 0x2800, symBinAddr: 0x1000163B8, symSize: 0x2C }
  - { offsetInCU: 0xABEA, offset: 0x3572F, size: 0x8, addend: 0x0, symName: __Z4ceilB7v160006f, symObjAddr: 0x28A8, symBinAddr: 0x100016434, symSize: 0x18 }
  - { offsetInCU: 0xAC19, offset: 0x3575E, size: 0x8, addend: 0x0, symName: __ZNSt3__116__hash_node_baseIPNS_11__hash_nodeINS_17__hash_value_typeIiiEEPvEEE5__ptrB7v160006Ev, symObjAddr: 0x28C0, symBinAddr: 0x10001644C, symSize: 0x24 }
  - { offsetInCU: 0xAC3F, offset: 0x35784, size: 0x8, addend: 0x0, symName: __ZNKSt3__110unique_ptrINS_11__hash_nodeINS_17__hash_value_typeIiiEEPvEENS_22__hash_node_destructorINS_9allocatorIS5_EEEEEptB7v160006Ev, symObjAddr: 0x28E4, symBinAddr: 0x100016470, symSize: 0x28 }
  - { offsetInCU: 0xAC65, offset: 0x357AA, size: 0x8, addend: 0x0, symName: __ZNKSt3__110unique_ptrINS_11__hash_nodeINS_17__hash_value_typeIiiEEPvEENS_22__hash_node_destructorINS_9allocatorIS5_EEEEE3getB7v160006Ev, symObjAddr: 0x290C, symBinAddr: 0x100016498, symSize: 0x28 }
  - { offsetInCU: 0xAC8B, offset: 0x357D0, size: 0x8, addend: 0x0, symName: __ZNSt3__110unique_ptrINS_11__hash_nodeINS_17__hash_value_typeIiiEEPvEENS_22__hash_node_destructorINS_9allocatorIS5_EEEEE7releaseB7v160006Ev, symObjAddr: 0x2934, symBinAddr: 0x1000164C0, symSize: 0x44 }
  - { offsetInCU: 0xACC0, offset: 0x35805, size: 0x8, addend: 0x0, symName: __ZNSt3__110unique_ptrINS_11__hash_nodeINS_17__hash_value_typeIiiEEPvEENS_22__hash_node_destructorINS_9allocatorIS5_EEEEED1B7v160006Ev, symObjAddr: 0x2978, symBinAddr: 0x100016504, symSize: 0x2C }
  - { offsetInCU: 0xACEA, offset: 0x3582F, size: 0x8, addend: 0x0, symName: __ZNSt3__115__hash_iteratorIPNS_11__hash_nodeINS_17__hash_value_typeIiiEEPvEEEC1B7v160006EPNS_16__hash_node_baseIS6_EEPKv, symObjAddr: 0x29A4, symBinAddr: 0x100016530, symSize: 0x3C }
  - { offsetInCU: 0xAD3D, offset: 0x35882, size: 0x8, addend: 0x0, symName: __ZNSt3__14pairINS_15__hash_iteratorIPNS_11__hash_nodeINS_17__hash_value_typeIiiEEPvEEEEbEC1B7v160006IS8_RbLS5_0EEEOT_OT0_, symObjAddr: 0x29E0, symBinAddr: 0x10001656C, symSize: 0x3C }
  - { offsetInCU: 0xAD9B, offset: 0x358E0, size: 0x8, addend: 0x0, symName: __ZNSt3__117__compressed_pairImNS_22__unordered_map_hasherIiNS_17__hash_value_typeIiiEENS_4hashIiEENS_8equal_toIiEELb1EEEE6secondB7v160006Ev, symObjAddr: 0x2A1C, symBinAddr: 0x1000165A8, symSize: 0x24 }
  - { offsetInCU: 0xADC1, offset: 0x35906, size: 0x8, addend: 0x0, symName: __ZNSt3__122__compressed_pair_elemINS_22__unordered_map_hasherIiNS_17__hash_value_typeIiiEENS_4hashIiEENS_8equal_toIiEELb1EEELi1ELb1EE5__getB7v160006Ev, symObjAddr: 0x2A40, symBinAddr: 0x1000165CC, symSize: 0x14 }
  - { offsetInCU: 0xADE7, offset: 0x3592C, size: 0x8, addend: 0x0, symName: __ZNKSt3__14hashIiEclB7v160006Ei, symObjAddr: 0x2A54, symBinAddr: 0x1000165E0, symSize: 0x18 }
  - { offsetInCU: 0xAE1C, offset: 0x35961, size: 0x8, addend: 0x0, symName: __ZNKSt3__110unique_ptrIA_PNS_16__hash_node_baseIPNS_11__hash_nodeINS_17__hash_value_typeIiiEEPvEEEENS_25__bucket_list_deallocatorINS_9allocatorIS9_EEEEE11get_deleterB7v160006Ev, symObjAddr: 0x2A6C, symBinAddr: 0x1000165F8, symSize: 0x24 }
  - { offsetInCU: 0xAE42, offset: 0x35987, size: 0x8, addend: 0x0, symName: __ZNKSt3__125__bucket_list_deallocatorINS_9allocatorIPNS_16__hash_node_baseIPNS_11__hash_nodeINS_17__hash_value_typeIiiEEPvEEEEEEE4sizeB7v160006Ev, symObjAddr: 0x2A90, symBinAddr: 0x10001661C, symSize: 0x28 }
  - { offsetInCU: 0xAE68, offset: 0x359AD, size: 0x8, addend: 0x0, symName: __ZNKSt3__117__compressed_pairIPPNS_16__hash_node_baseIPNS_11__hash_nodeINS_17__hash_value_typeIiiEEPvEEEENS_25__bucket_list_deallocatorINS_9allocatorIS9_EEEEE6secondB7v160006Ev, symObjAddr: 0x2AB8, symBinAddr: 0x100016644, symSize: 0x28 }
  - { offsetInCU: 0xAE8E, offset: 0x359D3, size: 0x8, addend: 0x0, symName: __ZNKSt3__122__compressed_pair_elemINS_25__bucket_list_deallocatorINS_9allocatorIPNS_16__hash_node_baseIPNS_11__hash_nodeINS_17__hash_value_typeIiiEEPvEEEEEEEELi1ELb0EE5__getB7v160006Ev, symObjAddr: 0x2AE0, symBinAddr: 0x10001666C, symSize: 0x14 }
  - { offsetInCU: 0xAEB4, offset: 0x359F9, size: 0x8, addend: 0x0, symName: __ZNKSt3__117__compressed_pairImNS_9allocatorIPNS_16__hash_node_baseIPNS_11__hash_nodeINS_17__hash_value_typeIiiEEPvEEEEEEE5firstB7v160006Ev, symObjAddr: 0x2AF4, symBinAddr: 0x100016680, symSize: 0x24 }
  - { offsetInCU: 0xAEDA, offset: 0x35A1F, size: 0x8, addend: 0x0, symName: __ZNKSt3__117__compressed_pairIPPNS_16__hash_node_baseIPNS_11__hash_nodeINS_17__hash_value_typeIiiEEPvEEEENS_25__bucket_list_deallocatorINS_9allocatorIS9_EEEEE5firstB7v160006Ev, symObjAddr: 0x2B2C, symBinAddr: 0x1000166A4, symSize: 0x24 }
  - { offsetInCU: 0xAF00, offset: 0x35A45, size: 0x8, addend: 0x0, symName: __ZNKSt3__122__compressed_pair_elemIPPNS_16__hash_node_baseIPNS_11__hash_nodeINS_17__hash_value_typeIiiEEPvEEEELi0ELb0EE5__getB7v160006Ev, symObjAddr: 0x2B50, symBinAddr: 0x1000166C8, symSize: 0x14 }
  - { offsetInCU: 0xAF26, offset: 0x35A6B, size: 0x8, addend: 0x0, symName: __ZNSt3__117__compressed_pairIfNS_21__unordered_map_equalIiNS_17__hash_value_typeIiiEENS_8equal_toIiEENS_4hashIiEELb1EEEE6secondB7v160006Ev, symObjAddr: 0x2B64, symBinAddr: 0x1000166DC, symSize: 0x24 }
  - { offsetInCU: 0xAF4C, offset: 0x35A91, size: 0x8, addend: 0x0, symName: __ZNSt3__122__compressed_pair_elemINS_21__unordered_map_equalIiNS_17__hash_value_typeIiiEENS_8equal_toIiEENS_4hashIiEELb1EEELi1ELb1EE5__getB7v160006Ev, symObjAddr: 0x2B88, symBinAddr: 0x100016700, symSize: 0x14 }
  - { offsetInCU: 0xAF72, offset: 0x35AB7, size: 0x8, addend: 0x0, symName: __ZNKSt3__18equal_toIiEclB7v160006ERKiS3_, symObjAddr: 0x2B9C, symBinAddr: 0x100016714, symSize: 0x34 }
  - { offsetInCU: 0xAFB6, offset: 0x35AFB, size: 0x8, addend: 0x0, symName: __ZNKSt3__117__hash_value_typeIiiE11__get_valueB7v160006Ev, symObjAddr: 0x2BD0, symBinAddr: 0x100016748, symSize: 0x14 }
  - { offsetInCU: 0xAFDC, offset: 0x35B21, size: 0x8, addend: 0x0, symName: __ZNSt3__116allocator_traitsINS_9allocatorINS_11__hash_nodeINS_17__hash_value_typeIiiEEPvEEEEE8allocateB7v160006ERS7_m, symObjAddr: 0x2BE4, symBinAddr: 0x10001675C, symSize: 0x2C }
  - { offsetInCU: 0xB00F, offset: 0x35B54, size: 0x8, addend: 0x0, symName: __ZNSt3__122__hash_node_destructorINS_9allocatorINS_11__hash_nodeINS_17__hash_value_typeIiiEEPvEEEEEC1B7v160006ERS7_b, symObjAddr: 0x2C10, symBinAddr: 0x100016788, symSize: 0x48 }
  - { offsetInCU: 0xB05D, offset: 0x35BA2, size: 0x8, addend: 0x0, symName: __ZNSt3__110unique_ptrINS_11__hash_nodeINS_17__hash_value_typeIiiEEPvEENS_22__hash_node_destructorINS_9allocatorIS5_EEEEEC1B7v160006ILb1EvEEPS5_NS_16__dependent_typeINS_27__unique_ptr_deleter_sfinaeIS9_EEXT_EE20__good_rval_ref_typeE, symObjAddr: 0x2C58, symBinAddr: 0x1000167D0, symSize: 0x3C }
  - { offsetInCU: 0xB0AE, offset: 0x35BF3, size: 0x8, addend: 0x0, symName: __ZNSt3__116allocator_traitsINS_9allocatorINS_11__hash_nodeINS_17__hash_value_typeIiiEEPvEEEEE9constructB7v160006INS_4pairIKiiEEJRKNS_21piecewise_construct_tENS_5tupleIJOiEEENSG_IJEEEEvEEvRS7_PT_DpOT0_, symObjAddr: 0x2C94, symBinAddr: 0x10001680C, symSize: 0x44 }
  - { offsetInCU: 0xB12D, offset: 0x35C72, size: 0x8, addend: 0x0, symName: __ZNSt3__110unique_ptrINS_11__hash_nodeINS_17__hash_value_typeIiiEEPvEENS_22__hash_node_destructorINS_9allocatorIS5_EEEEE11get_deleterB7v160006Ev, symObjAddr: 0x2CD8, symBinAddr: 0x100016850, symSize: 0x24 }
  - { offsetInCU: 0xB153, offset: 0x35C98, size: 0x8, addend: 0x0, symName: __ZNSt3__19allocatorINS_11__hash_nodeINS_17__hash_value_typeIiiEEPvEEE8allocateB7v160006Em, symObjAddr: 0x2CFC, symBinAddr: 0x100016874, symSize: 0x5C }
  - { offsetInCU: 0xB191, offset: 0x35CD6, size: 0x8, addend: 0x0, symName: __ZNSt3__116allocator_traitsINS_9allocatorINS_11__hash_nodeINS_17__hash_value_typeIiiEEPvEEEEE8max_sizeB7v160006IS7_vEEmRKS7_, symObjAddr: 0x2D58, symBinAddr: 0x1000168D0, symSize: 0x24 }
  - { offsetInCU: 0xB1BF, offset: 0x35D04, size: 0x8, addend: 0x0, symName: __ZNKSt3__19allocatorINS_11__hash_nodeINS_17__hash_value_typeIiiEEPvEEE8max_sizeB7v160006Ev, symObjAddr: 0x2DD8, symBinAddr: 0x1000168F4, symSize: 0x18 }
  - { offsetInCU: 0xB1E5, offset: 0x35D2A, size: 0x8, addend: 0x0, symName: __ZNSt3__122__hash_node_destructorINS_9allocatorINS_11__hash_nodeINS_17__hash_value_typeIiiEEPvEEEEEC2B7v160006ERS7_b, symObjAddr: 0x2E14, symBinAddr: 0x10001690C, symSize: 0x38 }
  - { offsetInCU: 0xB22D, offset: 0x35D72, size: 0x8, addend: 0x0, symName: __ZNSt3__110unique_ptrINS_11__hash_nodeINS_17__hash_value_typeIiiEEPvEENS_22__hash_node_destructorINS_9allocatorIS5_EEEEEC2B7v160006ILb1EvEEPS5_NS_16__dependent_typeINS_27__unique_ptr_deleter_sfinaeIS9_EEXT_EE20__good_rval_ref_typeE, symObjAddr: 0x2E4C, symBinAddr: 0x100016944, symSize: 0x48 }
  - { offsetInCU: 0xB27E, offset: 0x35DC3, size: 0x8, addend: 0x0, symName: __ZNSt3__117__compressed_pairIPNS_11__hash_nodeINS_17__hash_value_typeIiiEEPvEENS_22__hash_node_destructorINS_9allocatorIS5_EEEEEC1B7v160006IRS6_SA_EEOT_OT0_, symObjAddr: 0x2E94, symBinAddr: 0x10001698C, symSize: 0x3C }
  - { offsetInCU: 0xB2D6, offset: 0x35E1B, size: 0x8, addend: 0x0, symName: __ZNSt3__117__compressed_pairIPNS_11__hash_nodeINS_17__hash_value_typeIiiEEPvEENS_22__hash_node_destructorINS_9allocatorIS5_EEEEEC2B7v160006IRS6_SA_EEOT_OT0_, symObjAddr: 0x2ED0, symBinAddr: 0x1000169C8, symSize: 0x48 }
  - { offsetInCU: 0xB32E, offset: 0x35E73, size: 0x8, addend: 0x0, symName: __ZNSt3__122__compressed_pair_elemIPNS_11__hash_nodeINS_17__hash_value_typeIiiEEPvEELi0ELb0EEC2B7v160006IRS6_vEEOT_, symObjAddr: 0x2F18, symBinAddr: 0x100016A10, symSize: 0x24 }
  - { offsetInCU: 0xB370, offset: 0x35EB5, size: 0x8, addend: 0x0, symName: __ZNSt3__122__compressed_pair_elemINS_22__hash_node_destructorINS_9allocatorINS_11__hash_nodeINS_17__hash_value_typeIiiEEPvEEEEEELi1ELb0EEC2B7v160006IS9_vEEOT_, symObjAddr: 0x2F3C, symBinAddr: 0x100016A34, symSize: 0x24 }
  - { offsetInCU: 0xB3B2, offset: 0x35EF7, size: 0x8, addend: 0x0, symName: __ZNSt3__19allocatorINS_11__hash_nodeINS_17__hash_value_typeIiiEEPvEEE9constructB7v160006INS_4pairIKiiEEJRKNS_21piecewise_construct_tENS_5tupleIJOiEEENSE_IJEEEEEEvPT_DpOT0_, symObjAddr: 0x2F60, symBinAddr: 0x100016A58, symSize: 0x44 }
  - { offsetInCU: 0xB42E, offset: 0x35F73, size: 0x8, addend: 0x0, symName: __ZNSt3__14pairIKiiEC1B7v160006IJOiEJEEENS_21piecewise_construct_tENS_5tupleIJDpT_EEENS6_IJDpT0_EEE, symObjAddr: 0x2FA4, symBinAddr: 0x100016A9C, symSize: 0x44 }
  - { offsetInCU: 0xB495, offset: 0x35FDA, size: 0x8, addend: 0x0, symName: __ZNSt3__14pairIKiiEC1B7v160006IJOiEJEJLm0EEJEEENS_21piecewise_construct_tERNS_5tupleIJDpT_EEERNS6_IJDpT0_EEENS_15__tuple_indicesIJXspT1_EEEENSF_IJXspT2_EEEE, symObjAddr: 0x2FE8, symBinAddr: 0x100016AE0, symSize: 0x3C }
  - { offsetInCU: 0xB522, offset: 0x36067, size: 0x8, addend: 0x0, symName: __ZNSt3__14pairIKiiEC2B7v160006IJOiEJEJLm0EEJEEENS_21piecewise_construct_tERNS_5tupleIJDpT_EEERNS6_IJDpT0_EEENS_15__tuple_indicesIJXspT1_EEEENSF_IJXspT2_EEEE, symObjAddr: 0x3024, symBinAddr: 0x100016B1C, symSize: 0x48 }
  - { offsetInCU: 0xB5AF, offset: 0x360F4, size: 0x8, addend: 0x0, symName: __ZNSt3__112__tuple_leafILm0EOiLb0EE3getB7v160006Ev, symObjAddr: 0x3090, symBinAddr: 0x100016B88, symSize: 0x18 }
  - { offsetInCU: 0xB5D5, offset: 0x3611A, size: 0x8, addend: 0x0, symName: __ZNSt3__117__compressed_pairIPNS_11__hash_nodeINS_17__hash_value_typeIiiEEPvEENS_22__hash_node_destructorINS_9allocatorIS5_EEEEE6secondB7v160006Ev, symObjAddr: 0x30A8, symBinAddr: 0x100016BA0, symSize: 0x28 }
  - { offsetInCU: 0xB5FB, offset: 0x36140, size: 0x8, addend: 0x0, symName: __ZNSt3__122__compressed_pair_elemINS_22__hash_node_destructorINS_9allocatorINS_11__hash_nodeINS_17__hash_value_typeIiiEEPvEEEEEELi1ELb0EE5__getB7v160006Ev, symObjAddr: 0x30D0, symBinAddr: 0x100016BC8, symSize: 0x14 }
  - { offsetInCU: 0xB621, offset: 0x36166, size: 0x8, addend: 0x0, symName: __ZNSt3__117__compressed_pairImNS_22__unordered_map_hasherIiNS_17__hash_value_typeIiiEENS_4hashIiEENS_8equal_toIiEELb1EEEE5firstB7v160006Ev, symObjAddr: 0x30E4, symBinAddr: 0x100016BDC, symSize: 0x24 }
  - { offsetInCU: 0xB647, offset: 0x3618C, size: 0x8, addend: 0x0, symName: __ZNSt3__117__compressed_pairIfNS_21__unordered_map_equalIiNS_17__hash_value_typeIiiEENS_8equal_toIiEENS_4hashIiEELb1EEEE5firstB7v160006Ev, symObjAddr: 0x3108, symBinAddr: 0x100016C00, symSize: 0x24 }
  - { offsetInCU: 0xB66D, offset: 0x361B2, size: 0x8, addend: 0x0, symName: __ZNSt3__122__compressed_pair_elemIfLi0ELb0EE5__getB7v160006Ev, symObjAddr: 0x312C, symBinAddr: 0x100016C24, symSize: 0x14 }
  - { offsetInCU: 0xB693, offset: 0x361D8, size: 0x8, addend: 0x0, symName: __ZNSt3__112__hash_tableINS_17__hash_value_typeIiiEENS_22__unordered_map_hasherIiS2_NS_4hashIiEENS_8equal_toIiEELb1EEENS_21__unordered_map_equalIiS2_S7_S5_Lb1EEENS_9allocatorIS2_EEE8__rehashILb1EEEvm, symObjAddr: 0x3140, symBinAddr: 0x100016C38, symSize: 0x1A8 }
  - { offsetInCU: 0xB6E3, offset: 0x36228, size: 0x8, addend: 0x0, symName: __ZNSt3__112__hash_tableINS_17__hash_value_typeIiiEENS_22__unordered_map_hasherIiS2_NS_4hashIiEENS_8equal_toIiEELb1EEENS_21__unordered_map_equalIiS2_S7_S5_Lb1EEENS_9allocatorIS2_EEE11__do_rehashILb1EEEvm, symObjAddr: 0x32E8, symBinAddr: 0x100016DE0, symSize: 0x290 }
  - { offsetInCU: 0xB7C6, offset: 0x3630B, size: 0x8, addend: 0x0, symName: __ZNSt3__110unique_ptrIA_PNS_16__hash_node_baseIPNS_11__hash_nodeINS_17__hash_value_typeIiiEEPvEEEENS_25__bucket_list_deallocatorINS_9allocatorIS9_EEEEE11get_deleterB7v160006Ev, symObjAddr: 0x35F4, symBinAddr: 0x1000170EC, symSize: 0x24 }
  - { offsetInCU: 0xB7EC, offset: 0x36331, size: 0x8, addend: 0x0, symName: __ZNSt3__110unique_ptrIA_PNS_16__hash_node_baseIPNS_11__hash_nodeINS_17__hash_value_typeIiiEEPvEEEENS_25__bucket_list_deallocatorINS_9allocatorIS9_EEEEE5resetB7v160006IPS9_EENS_9enable_ifIXsr28_CheckArrayPointerConversionIT_EE5valueEvE4typeESJ_, symObjAddr: 0x3618, symBinAddr: 0x100017110, symSize: 0x78 }
  - { offsetInCU: 0xB839, offset: 0x3637E, size: 0x8, addend: 0x0, symName: __ZNSt3__116allocator_traitsINS_9allocatorIPNS_16__hash_node_baseIPNS_11__hash_nodeINS_17__hash_value_typeIiiEEPvEEEEEEE8allocateB7v160006ERSB_m, symObjAddr: 0x3690, symBinAddr: 0x100017188, symSize: 0x2C }
  - { offsetInCU: 0xB86C, offset: 0x363B1, size: 0x8, addend: 0x0, symName: __ZNSt3__19allocatorIPNS_16__hash_node_baseIPNS_11__hash_nodeINS_17__hash_value_typeIiiEEPvEEEEE8allocateB7v160006Em, symObjAddr: 0x36BC, symBinAddr: 0x1000171B4, symSize: 0x58 }
  - { offsetInCU: 0xB8AA, offset: 0x363EF, size: 0x8, addend: 0x0, symName: __ZNSt3__116allocator_traitsINS_9allocatorIPNS_16__hash_node_baseIPNS_11__hash_nodeINS_17__hash_value_typeIiiEEPvEEEEEEE8max_sizeB7v160006ISB_vEEmRKSB_, symObjAddr: 0x3714, symBinAddr: 0x10001720C, symSize: 0x24 }
  - { offsetInCU: 0xB8D8, offset: 0x3641D, size: 0x8, addend: 0x0, symName: __ZNKSt3__19allocatorIPNS_16__hash_node_baseIPNS_11__hash_nodeINS_17__hash_value_typeIiiEEPvEEEEE8max_sizeB7v160006Ev, symObjAddr: 0x3738, symBinAddr: 0x100017230, symSize: 0x14 }
  - { offsetInCU: 0xB8FE, offset: 0x36443, size: 0x8, addend: 0x0, symName: __ZNKSt3__117__compressed_pairIPNS_11__hash_nodeINS_17__hash_value_typeIiiEEPvEENS_22__hash_node_destructorINS_9allocatorIS5_EEEEE5firstB7v160006Ev, symObjAddr: 0x37F0, symBinAddr: 0x100017244, symSize: 0x24 }
  - { offsetInCU: 0xB924, offset: 0x36469, size: 0x8, addend: 0x0, symName: __ZNKSt3__122__compressed_pair_elemIPNS_11__hash_nodeINS_17__hash_value_typeIiiEEPvEELi0ELb0EE5__getB7v160006Ev, symObjAddr: 0x3814, symBinAddr: 0x100017268, symSize: 0x14 }
  - { offsetInCU: 0xB94A, offset: 0x3648F, size: 0x8, addend: 0x0, symName: __ZNSt3__117__compressed_pairIPNS_11__hash_nodeINS_17__hash_value_typeIiiEEPvEENS_22__hash_node_destructorINS_9allocatorIS5_EEEEE5firstB7v160006Ev, symObjAddr: 0x3828, symBinAddr: 0x10001727C, symSize: 0x24 }
  - { offsetInCU: 0xB970, offset: 0x364B5, size: 0x8, addend: 0x0, symName: __ZNSt3__122__compressed_pair_elemIPNS_11__hash_nodeINS_17__hash_value_typeIiiEEPvEELi0ELb0EE5__getB7v160006Ev, symObjAddr: 0x384C, symBinAddr: 0x1000172A0, symSize: 0x14 }
  - { offsetInCU: 0xB996, offset: 0x364DB, size: 0x8, addend: 0x0, symName: __ZNSt3__110unique_ptrINS_11__hash_nodeINS_17__hash_value_typeIiiEEPvEENS_22__hash_node_destructorINS_9allocatorIS5_EEEEED2B7v160006Ev, symObjAddr: 0x3860, symBinAddr: 0x1000172B4, symSize: 0x30 }
  - { offsetInCU: 0xB9C0, offset: 0x36505, size: 0x8, addend: 0x0, symName: __ZNSt3__110unique_ptrINS_11__hash_nodeINS_17__hash_value_typeIiiEEPvEENS_22__hash_node_destructorINS_9allocatorIS5_EEEEE5resetB7v160006EPS5_, symObjAddr: 0x3890, symBinAddr: 0x1000172E4, symSize: 0x78 }
  - { offsetInCU: 0xBA04, offset: 0x36549, size: 0x8, addend: 0x0, symName: __ZNSt3__122__hash_node_destructorINS_9allocatorINS_11__hash_nodeINS_17__hash_value_typeIiiEEPvEEEEEclB7v160006EPS6_, symObjAddr: 0x3908, symBinAddr: 0x10001735C, symSize: 0x94 }
  - { offsetInCU: 0xBA39, offset: 0x3657E, size: 0x8, addend: 0x0, symName: __ZNSt3__115__hash_iteratorIPNS_11__hash_nodeINS_17__hash_value_typeIiiEEPvEEEC2B7v160006EPNS_16__hash_node_baseIS6_EEPKv, symObjAddr: 0x399C, symBinAddr: 0x1000173F0, symSize: 0x24 }
  - { offsetInCU: 0xBA81, offset: 0x365C6, size: 0x8, addend: 0x0, symName: __ZNSt3__14pairINS_15__hash_iteratorIPNS_11__hash_nodeINS_17__hash_value_typeIiiEEPvEEEEbEC2B7v160006IS8_RbLS5_0EEEOT_OT0_, symObjAddr: 0x39C0, symBinAddr: 0x100017414, symSize: 0x38 }
  - { offsetInCU: 0xBADF, offset: 0x36624, size: 0x8, addend: 0x0, symName: __ZNSt3__15tupleIJOiEEC1B7v160006IJiELi0EEEDpOT_, symObjAddr: 0x39F8, symBinAddr: 0x10001744C, symSize: 0x34 }
  - { offsetInCU: 0xBB29, offset: 0x3666E, size: 0x8, addend: 0x0, symName: __ZNSt3__15tupleIJOiEEC2B7v160006IJiELi0EEEDpOT_, symObjAddr: 0x3A2C, symBinAddr: 0x100017480, symSize: 0x34 }
  - { offsetInCU: 0xBB73, offset: 0x366B8, size: 0x8, addend: 0x0, symName: __ZNSt3__112__tuple_implINS_15__tuple_indicesIJLm0EEEEJOiEEC1B7v160006IJLm0EEJS3_EJEJEJiEEENS1_IJXspT_EEEENS_13__tuple_typesIJDpT0_EEENS1_IJXspT1_EEEENS7_IJDpT2_EEEDpOT3_, symObjAddr: 0x3A60, symBinAddr: 0x1000174B4, symSize: 0x34 }
  - { offsetInCU: 0xBC04, offset: 0x36749, size: 0x8, addend: 0x0, symName: __ZNSt3__112__tuple_implINS_15__tuple_indicesIJLm0EEEEJOiEEC2B7v160006IJLm0EEJS3_EJEJEJiEEENS1_IJXspT_EEEENS_13__tuple_typesIJDpT0_EEENS1_IJXspT1_EEEENS7_IJDpT2_EEEDpOT3_, symObjAddr: 0x3A94, symBinAddr: 0x1000174E8, symSize: 0x34 }
  - { offsetInCU: 0xBC95, offset: 0x367DA, size: 0x8, addend: 0x0, symName: __ZNSt3__112__tuple_leafILm0EOiLb0EEC2B7v160006IivEEOT_, symObjAddr: 0x3AC8, symBinAddr: 0x10001751C, symSize: 0x20 }
  - { offsetInCU: 0xBCD8, offset: 0x3681D, size: 0x8, addend: 0x0, symName: __ZNSt3__114pointer_traitsIPNS_17__hash_value_typeIiiEEE10pointer_toB7v160006ERS2_, symObjAddr: 0x3AE8, symBinAddr: 0x10001753C, symSize: 0x14 }
  - { offsetInCU: 0xBD00, offset: 0x36845, size: 0x8, addend: 0x0, symName: __ZNSt3__112__hash_tableINS_17__hash_value_typeIiiEENS_22__unordered_map_hasherIiS2_NS_4hashIiEENS_8equal_toIiEELb1EEENS_21__unordered_map_equalIiS2_S7_S5_Lb1EEENS_9allocatorIS2_EEE4findIiEENS_15__hash_iteratorIPNS_11__hash_nodeIS2_PvEEEERKT_, symObjAddr: 0x45F4, symBinAddr: 0x100017550, symSize: 0x1B4 }
  - { offsetInCU: 0xBD8A, offset: 0x368CF, size: 0x8, addend: 0x0, symName: __ZNSt3__119__hash_map_iteratorINS_15__hash_iteratorIPNS_11__hash_nodeINS_17__hash_value_typeIiiEEPvEEEEEC1B7v160006ES8_, symObjAddr: 0x47A8, symBinAddr: 0x100017704, symSize: 0x34 }
  - { offsetInCU: 0xBDC3, offset: 0x36908, size: 0x8, addend: 0x0, symName: __ZNSt3__112__hash_tableINS_17__hash_value_typeIiiEENS_22__unordered_map_hasherIiS2_NS_4hashIiEENS_8equal_toIiEELb1EEENS_21__unordered_map_equalIiS2_S7_S5_Lb1EEENS_9allocatorIS2_EEE3endEv, symObjAddr: 0x47DC, symBinAddr: 0x100017738, symSize: 0x30 }
  - { offsetInCU: 0xBDEB, offset: 0x36930, size: 0x8, addend: 0x0, symName: __ZNSt3__119__hash_map_iteratorINS_15__hash_iteratorIPNS_11__hash_nodeINS_17__hash_value_typeIiiEEPvEEEEEC2B7v160006ES8_, symObjAddr: 0x480C, symBinAddr: 0x100017768, symSize: 0x20 }
  - { offsetInCU: 0xBE24, offset: 0x36969, size: 0x8, addend: 0x0, symName: __ZNSt3__114pointer_traitsIPNS_4pairIKiiEEE10pointer_toB7v160006ERS3_, symObjAddr: 0x4890, symBinAddr: 0x1000177EC, symSize: 0x14 }
  - { offsetInCU: 0xBE47, offset: 0x3698C, size: 0x8, addend: 0x0, symName: __ZNSt3__112__hash_tableINS_17__hash_value_typeIiiEENS_22__unordered_map_hasherIiS2_NS_4hashIiEENS_8equal_toIiEELb1EEENS_21__unordered_map_equalIiS2_S7_S5_Lb1EEENS_9allocatorIS2_EEE25__emplace_unique_key_argsIiJRKNS_21piecewise_construct_tENS_5tupleIJRKiEEENSI_IJEEEEEENS_4pairINS_15__hash_iteratorIPNS_11__hash_nodeIS2_PvEEEEbEERKT_DpOT0_, symObjAddr: 0x48A4, symBinAddr: 0x100017800, symSize: 0x498 }
  - { offsetInCU: 0xBF50, offset: 0x36A95, size: 0x8, addend: 0x0, symName: __ZNSt3__112__hash_tableINS_17__hash_value_typeIiiEENS_22__unordered_map_hasherIiS2_NS_4hashIiEENS_8equal_toIiEELb1EEENS_21__unordered_map_equalIiS2_S7_S5_Lb1EEENS_9allocatorIS2_EEE21__construct_node_hashIRKNS_21piecewise_construct_tEJNS_5tupleIJRKiEEENSI_IJEEEEEENS_10unique_ptrINS_11__hash_nodeIS2_PvEENS_22__hash_node_destructorINSB_ISQ_EEEEEEmOT_DpOT0_, symObjAddr: 0x4D68, symBinAddr: 0x100017CC4, symSize: 0x150 }
  - { offsetInCU: 0xBFEC, offset: 0x36B31, size: 0x8, addend: 0x0, symName: __ZNSt3__116allocator_traitsINS_9allocatorINS_11__hash_nodeINS_17__hash_value_typeIiiEEPvEEEEE9constructB7v160006INS_4pairIKiiEEJRKNS_21piecewise_construct_tENS_5tupleIJRSB_EEENSG_IJEEEEvEEvRS7_PT_DpOT0_, symObjAddr: 0x4EB8, symBinAddr: 0x100017E14, symSize: 0x44 }
  - { offsetInCU: 0xC06B, offset: 0x36BB0, size: 0x8, addend: 0x0, symName: __ZNSt3__19allocatorINS_11__hash_nodeINS_17__hash_value_typeIiiEEPvEEE9constructB7v160006INS_4pairIKiiEEJRKNS_21piecewise_construct_tENS_5tupleIJRS9_EEENSE_IJEEEEEEvPT_DpOT0_, symObjAddr: 0x4EFC, symBinAddr: 0x100017E58, symSize: 0x44 }
  - { offsetInCU: 0xC0E7, offset: 0x36C2C, size: 0x8, addend: 0x0, symName: __ZNSt3__14pairIKiiEC1B7v160006IJRS1_EJEEENS_21piecewise_construct_tENS_5tupleIJDpT_EEENS6_IJDpT0_EEE, symObjAddr: 0x4F40, symBinAddr: 0x100017E9C, symSize: 0x44 }
  - { offsetInCU: 0xC14E, offset: 0x36C93, size: 0x8, addend: 0x0, symName: __ZNSt3__14pairIKiiEC1B7v160006IJRS1_EJEJLm0EEJEEENS_21piecewise_construct_tERNS_5tupleIJDpT_EEERNS6_IJDpT0_EEENS_15__tuple_indicesIJXspT1_EEEENSF_IJXspT2_EEEE, symObjAddr: 0x4F84, symBinAddr: 0x100017EE0, symSize: 0x3C }
  - { offsetInCU: 0xC1DB, offset: 0x36D20, size: 0x8, addend: 0x0, symName: __ZNSt3__14pairIKiiEC2B7v160006IJRS1_EJEJLm0EEJEEENS_21piecewise_construct_tERNS_5tupleIJDpT_EEERNS6_IJDpT0_EEENS_15__tuple_indicesIJXspT1_EEEENSF_IJXspT2_EEEE, symObjAddr: 0x4FC0, symBinAddr: 0x100017F1C, symSize: 0x48 }
  - { offsetInCU: 0xC268, offset: 0x36DAD, size: 0x8, addend: 0x0, symName: __ZNSt3__112__tuple_leafILm0ERKiLb0EE3getB7v160006Ev, symObjAddr: 0x502C, symBinAddr: 0x100017F88, symSize: 0x18 }
  - { offsetInCU: 0xC28E, offset: 0x36DD3, size: 0x8, addend: 0x0, symName: __ZNSt3__15tupleIJRKiEEC1B7v160006INS_4_AndELi0EEES2_, symObjAddr: 0x5044, symBinAddr: 0x100017FA0, symSize: 0x34 }
  - { offsetInCU: 0xC2D6, offset: 0x36E1B, size: 0x8, addend: 0x0, symName: __ZNSt3__15tupleIJRKiEEC2B7v160006INS_4_AndELi0EEES2_, symObjAddr: 0x5078, symBinAddr: 0x100017FD4, symSize: 0x34 }
  - { offsetInCU: 0xC31E, offset: 0x36E63, size: 0x8, addend: 0x0, symName: __ZNSt3__112__tuple_implINS_15__tuple_indicesIJLm0EEEEJRKiEEC1B7v160006IJLm0EEJS4_EJEJEJS4_EEENS1_IJXspT_EEEENS_13__tuple_typesIJDpT0_EEENS1_IJXspT1_EEEENS8_IJDpT2_EEEDpOT3_, symObjAddr: 0x50AC, symBinAddr: 0x100018008, symSize: 0x34 }
  - { offsetInCU: 0xC3AF, offset: 0x36EF4, size: 0x8, addend: 0x0, symName: __ZNSt3__112__tuple_implINS_15__tuple_indicesIJLm0EEEEJRKiEEC2B7v160006IJLm0EEJS4_EJEJEJS4_EEENS1_IJXspT_EEEENS_13__tuple_typesIJDpT0_EEENS1_IJXspT1_EEEENS8_IJDpT2_EEEDpOT3_, symObjAddr: 0x50E0, symBinAddr: 0x10001803C, symSize: 0x34 }
  - { offsetInCU: 0xC440, offset: 0x36F85, size: 0x8, addend: 0x0, symName: __ZNSt3__112__tuple_leafILm0ERKiLb0EEC2B7v160006IS2_vEEOT_, symObjAddr: 0x5114, symBinAddr: 0x100018070, symSize: 0x20 }
  - { offsetInCU: 0xC483, offset: 0x36FC8, size: 0x8, addend: 0x0, symName: __ZNSt3__112__hash_tableINS_17__hash_value_typeIiiEENS_22__unordered_map_hasherIiS2_NS_4hashIiEENS_8equal_toIiEELb1EEENS_21__unordered_map_equalIiS2_S7_S5_Lb1EEENS_9allocatorIS2_EEE5beginEv, symObjAddr: 0x5134, symBinAddr: 0x100018090, symSize: 0x40 }
  - { offsetInCU: 0xC4AB, offset: 0x36FF0, size: 0x8, addend: 0x0, symName: __ZNSt3__115__hash_iteratorIPNS_11__hash_nodeINS_17__hash_value_typeIiiEEPvEEEppB7v160006Ev, symObjAddr: 0x5174, symBinAddr: 0x1000180D0, symSize: 0x20 }
  - { offsetInCU: 0xC4D1, offset: 0x37016, size: 0x8, addend: 0x0, symName: __ZNSt3__16vectorI6RecordNS_9allocatorIS1_EEE18__construct_at_endINS_11__wrap_iterIPS1_EELi0EEEvT_S9_m, symObjAddr: 0x5998, symBinAddr: 0x1000181C4, symSize: 0x9C }
  - { offsetInCU: 0xC544, offset: 0x37089, size: 0x8, addend: 0x0, symName: __ZNSt3__16vectorI6RecordNS_9allocatorIS1_EEE12__move_rangeEPS1_S5_S5_, symObjAddr: 0x5A34, symBinAddr: 0x100018260, symSize: 0x13C }
  - { offsetInCU: 0xC600, offset: 0x37145, size: 0x8, addend: 0x0, symName: __ZNSt3__114__split_bufferI6RecordRNS_9allocatorIS1_EEE18__construct_at_endINS_11__wrap_iterIPS1_EEEENS_9enable_ifIXsr27__is_cpp17_forward_iteratorIT_EE5valueEvE4typeESB_SB_, symObjAddr: 0x5CB8, symBinAddr: 0x1000183EC, symSize: 0xF0 }
  - { offsetInCU: 0xC65C, offset: 0x371A1, size: 0x8, addend: 0x0, symName: __ZNKSt3__111__wrap_iterIPK6RecordE4baseB7v160006Ev, symObjAddr: 0x5F28, symBinAddr: 0x100018630, symSize: 0x18 }
  - { offsetInCU: 0xC682, offset: 0x371C7, size: 0x8, addend: 0x0, symName: __ZNSt3__111__wrap_iterIP6RecordEpLB7v160006El, symObjAddr: 0x6048, symBinAddr: 0x100018700, symSize: 0x30 }
  - { offsetInCU: 0xC6CF, offset: 0x37214, size: 0x8, addend: 0x0, symName: __ZNSt3__129_AllocatorDestroyRangeReverseINS_9allocatorI6RecordEEPS2_EC1B7v160006ERS3_RS4_S7_, symObjAddr: 0x6270, symBinAddr: 0x100018874, symSize: 0x44 }
  - { offsetInCU: 0xC726, offset: 0x3726B, size: 0x8, addend: 0x0, symName: __ZNSt3__116allocator_traitsINS_9allocatorI6RecordEEE9constructB7v160006IS2_JRS2_EvEEvRS3_PT_DpOT0_, symObjAddr: 0x62E8, symBinAddr: 0x1000188B8, symSize: 0x34 }
  - { offsetInCU: 0xC77D, offset: 0x372C2, size: 0x8, addend: 0x0, symName: __ZNSt3__128__exception_guard_exceptionsINS_29_AllocatorDestroyRangeReverseINS_9allocatorI6RecordEEPS3_EEE10__completeB7v160006Ev, symObjAddr: 0x6354, symBinAddr: 0x1000188EC, symSize: 0x1C }
  - { offsetInCU: 0xC7A3, offset: 0x372E8, size: 0x8, addend: 0x0, symName: __ZNSt3__128__exception_guard_exceptionsINS_29_AllocatorDestroyRangeReverseINS_9allocatorI6RecordEEPS3_EEED1B7v160006Ev, symObjAddr: 0x6370, symBinAddr: 0x100018908, symSize: 0x2C }
  - { offsetInCU: 0xC7CD, offset: 0x37312, size: 0x8, addend: 0x0, symName: __ZNSt3__128__exception_guard_exceptionsINS_29_AllocatorDestroyRangeReverseINS_9allocatorI6RecordEEPS3_EEEC1B7v160006ES6_, symObjAddr: 0x639C, symBinAddr: 0x100018934, symSize: 0x34 }
  - { offsetInCU: 0xC806, offset: 0x3734B, size: 0x8, addend: 0x0, symName: __ZNSt3__128__exception_guard_exceptionsINS_29_AllocatorDestroyRangeReverseINS_9allocatorI6RecordEEPS3_EEEC2B7v160006ES6_, symObjAddr: 0x63D0, symBinAddr: 0x100018968, symSize: 0x30 }
  - { offsetInCU: 0xC83F, offset: 0x37384, size: 0x8, addend: 0x0, symName: __ZNSt3__129_AllocatorDestroyRangeReverseINS_9allocatorI6RecordEEPS2_EC2B7v160006ERS3_RS4_S7_, symObjAddr: 0x6400, symBinAddr: 0x100018998, symSize: 0x38 }
  - { offsetInCU: 0xC896, offset: 0x373DB, size: 0x8, addend: 0x0, symName: __ZNSt3__19allocatorI6RecordE9constructB7v160006IS1_JRS1_EEEvPT_DpOT0_, symObjAddr: 0x6480, symBinAddr: 0x1000189D0, symSize: 0x34 }
  - { offsetInCU: 0xC8EC, offset: 0x37431, size: 0x8, addend: 0x0, symName: __ZNSt3__128__exception_guard_exceptionsINS_29_AllocatorDestroyRangeReverseINS_9allocatorI6RecordEEPS3_EEED2B7v160006Ev, symObjAddr: 0x64B4, symBinAddr: 0x100018A04, symSize: 0x50 }
  - { offsetInCU: 0xC916, offset: 0x3745B, size: 0x8, addend: 0x0, symName: __ZNKSt3__129_AllocatorDestroyRangeReverseINS_9allocatorI6RecordEEPS2_EclB7v160006Ev, symObjAddr: 0x6504, symBinAddr: 0x100018A54, symSize: 0x68 }
  - { offsetInCU: 0xC941, offset: 0x37486, size: 0x8, addend: 0x0, symName: __ZNSt3__119__to_address_helperINS_16reverse_iteratorIP6RecordEEvE6__callB7v160006ERKS4_, symObjAddr: 0x66B4, symBinAddr: 0x100018B50, symSize: 0x38 }
  - { offsetInCU: 0xC964, offset: 0x374A9, size: 0x8, addend: 0x0, symName: __ZNKSt3__116reverse_iteratorIP6RecordEptB7v160006Ev, symObjAddr: 0x66EC, symBinAddr: 0x100018B88, symSize: 0x24 }
  - { offsetInCU: 0xC990, offset: 0x374D5, size: 0x8, addend: 0x0, symName: __ZNSt3__116allocator_traitsINS_9allocatorI6RecordEEE9constructB7v160006IS2_JS2_EvEEvRS3_PT_DpOT0_, symObjAddr: 0x6780, symBinAddr: 0x100018BAC, symSize: 0x34 }
  - { offsetInCU: 0xC9E7, offset: 0x3752C, size: 0x8, addend: 0x0, symName: __ZNSt3__19allocatorI6RecordE9constructB7v160006IS1_JS1_EEEvPT_DpOT0_, symObjAddr: 0x67F4, symBinAddr: 0x100018C20, symSize: 0x34 }
  - { offsetInCU: 0xCA61, offset: 0x375A6, size: 0x8, addend: 0x0, symName: __ZNKSt3__123__move_backward_trivialclB7v160006I6RecordS2_Li0EEENS_4pairIPT_PT0_EES5_S5_S7_, symObjAddr: 0x69C4, symBinAddr: 0x100018DF0, symSize: 0x48 }
  - { offsetInCU: 0xCAC9, offset: 0x3760E, size: 0x8, addend: 0x0, symName: __ZNSt3__14pairIP6RecordS2_EC1B7v160006IRS2_S5_LPv0EEEOT_OT0_, symObjAddr: 0x6B9C, symBinAddr: 0x100018FC8, symSize: 0x3C }
  - { offsetInCU: 0xCB27, offset: 0x3766C, size: 0x8, addend: 0x0, symName: __ZNSt3__14pairIP6RecordS2_EC2B7v160006IRS2_S5_LPv0EEEOT_OT0_, symObjAddr: 0x6BD8, symBinAddr: 0x100019004, symSize: 0x34 }
  - { offsetInCU: 0xCB85, offset: 0x376CA, size: 0x8, addend: 0x0, symName: __ZNSt3__118__unwrap_iter_implIP6RecordLb1EE8__unwrapB7v160006ES2_, symObjAddr: 0x6C0C, symBinAddr: 0x100019038, symSize: 0x24 }
  - { offsetInCU: 0xCBAE, offset: 0x376F3, size: 0x8, addend: 0x0, symName: __ZNSt3__14pairIP6RecordS2_EC1B7v160006IS2_S2_LPv0EEEOT_OT0_, symObjAddr: 0x6C30, symBinAddr: 0x10001905C, symSize: 0x3C }
  - { offsetInCU: 0xCC0C, offset: 0x37751, size: 0x8, addend: 0x0, symName: __ZNSt3__14pairIP6RecordS2_EC2B7v160006IS2_S2_LPv0EEEOT_OT0_, symObjAddr: 0x6C6C, symBinAddr: 0x100019098, symSize: 0x34 }
  - { offsetInCU: 0xCC6A, offset: 0x377AF, size: 0x8, addend: 0x0, symName: __ZNSt3__118__unwrap_iter_implIP6RecordLb1EE8__rewrapB7v160006ES2_S2_, symObjAddr: 0x6CA0, symBinAddr: 0x1000190CC, symSize: 0x58 }
  - { offsetInCU: 0xCCA5, offset: 0x377EA, size: 0x8, addend: 0x0, symName: __ZNKSt3__114__copy_trivialclB7v160006I6RecordS2_Li0EEENS_4pairIPT_PT0_EES5_S5_S7_, symObjAddr: 0x6EDC, symBinAddr: 0x100019308, symSize: 0x48 }
  - { offsetInCU: 0xCD0D, offset: 0x37852, size: 0x8, addend: 0x0, symName: __ZNSt3__14pairIP6RecordS2_EC1B7v160006IRS2_S2_LPv0EEEOT_OT0_, symObjAddr: 0x7130, symBinAddr: 0x100019488, symSize: 0x3C }
  - { offsetInCU: 0xCD6B, offset: 0x378B0, size: 0x8, addend: 0x0, symName: __ZNSt3__14pairIP6RecordS2_EC2B7v160006IRS2_S2_LPv0EEEOT_OT0_, symObjAddr: 0x716C, symBinAddr: 0x1000194C4, symSize: 0x34 }
  - { offsetInCU: 0xCDE9, offset: 0x3792E, size: 0x8, addend: 0x0, symName: __ZNSt3__14pairINS_11__wrap_iterIP6RecordEES3_EC1B7v160006IS4_S3_LPv0EEEOT_OT0_, symObjAddr: 0x71A0, symBinAddr: 0x1000194F8, symSize: 0x3C }
  - { offsetInCU: 0xCE47, offset: 0x3798C, size: 0x8, addend: 0x0, symName: __ZNSt3__14pairINS_11__wrap_iterIP6RecordEES3_EC2B7v160006IS4_S3_LPv0EEEOT_OT0_, symObjAddr: 0x71DC, symBinAddr: 0x100019534, symSize: 0x34 }
  - { offsetInCU: 0xCEA5, offset: 0x379EA, size: 0x8, addend: 0x0, symName: __ZNSt3__118__unwrap_iter_implINS_11__wrap_iterIP6RecordEELb1EE8__rewrapB7v160006ES4_S3_, symObjAddr: 0x725C, symBinAddr: 0x1000195B4, symSize: 0x5C }
  - { offsetInCU: 0xCED6, offset: 0x37A1B, size: 0x8, addend: 0x0, symName: __ZNKSt3__111__wrap_iterIP6RecordEplB7v160006El, symObjAddr: 0x72B8, symBinAddr: 0x100019610, symSize: 0x3C }
  - { offsetInCU: 0xCF2C, offset: 0x37A71, size: 0x8, addend: 0x0, symName: __ZNSt3__114__split_bufferI6RecordRNS_9allocatorIS1_EEE21_ConstructTransactionC1B7v160006EPPS1_m, symObjAddr: 0x7860, symBinAddr: 0x10001964C, symSize: 0x3C }
  - { offsetInCU: 0xCF72, offset: 0x37AB7, size: 0x8, addend: 0x0, symName: __ZNSt3__114__split_bufferI6RecordRNS_9allocatorIS1_EEE21_ConstructTransactionD1B7v160006Ev, symObjAddr: 0x789C, symBinAddr: 0x100019688, symSize: 0x2C }
  - { offsetInCU: 0xCF9C, offset: 0x37AE1, size: 0x8, addend: 0x0, symName: __ZNSt3__114__split_bufferI6RecordRNS_9allocatorIS1_EEE21_ConstructTransactionC2B7v160006EPPS1_m, symObjAddr: 0x78C8, symBinAddr: 0x1000196B4, symSize: 0x4C }
  - { offsetInCU: 0xCFE2, offset: 0x37B27, size: 0x8, addend: 0x0, symName: __ZNSt3__114__split_bufferI6RecordRNS_9allocatorIS1_EEE21_ConstructTransactionD2B7v160006Ev, symObjAddr: 0x7914, symBinAddr: 0x100019700, symSize: 0x20 }
  - { offsetInCU: 0xD016, offset: 0x37B5B, size: 0x8, addend: 0x0, symName: __ZNKSt3__114__move_trivialclB7v160006I6RecordS2_Li0EEENS_4pairIPT_PT0_EES5_S5_S7_, symObjAddr: 0x8238, symBinAddr: 0x1000198D4, symSize: 0x48 }
  - { offsetInCU: 0xD07E, offset: 0x37BC3, size: 0x8, addend: 0x0, symName: __ZNSt3__111__wrap_iterIPK6RecordEC2B7v160006IPS1_EERKNS0_IT_EEPNS_9enable_ifIXsr14is_convertibleIS7_S3_EE5valueEvE4typeE, symObjAddr: 0x846C, symBinAddr: 0x10001991C, symSize: 0x40 }
  - { offsetInCU: 0x2713, offset: 0x3A46B, size: 0x8, addend: 0x0, symName: __ZNSt3__119__debug_db_insert_cB7v160006INS_6vectorINS1_I7AddressNS_9allocatorIS2_EEEENS3_IS5_EEEEEEvPT_, symObjAddr: 0x44AC, symBinAddr: 0x10001BAD0, symSize: 0x10 }
  - { offsetInCU: 0x2744, offset: 0x3A49C, size: 0x8, addend: 0x0, symName: __ZNSt3__118__debug_db_erase_cB7v160006INS_6vectorINS1_I7AddressNS_9allocatorIS2_EEEENS3_IS5_EEEEEEvPT_, symObjAddr: 0x478C, symBinAddr: 0x10001BDB0, symSize: 0x10 }
  - { offsetInCU: 0x2775, offset: 0x3A4CD, size: 0x8, addend: 0x0, symName: __ZNSt3__112__to_addressB7v160006INS_6vectorI7AddressNS_9allocatorIS2_EEEEEEPT_S7_, symObjAddr: 0x48D0, symBinAddr: 0x10001BEF4, symSize: 0x14 }
  - { offsetInCU: 0x27AA, offset: 0x3A502, size: 0x8, addend: 0x0, symName: __ZNSt3__122__make_exception_guardB7v160006INS_6vectorINS1_I7AddressNS_9allocatorIS2_EEEENS3_IS5_EEE16__destroy_vectorEEENS_28__exception_guard_exceptionsIT_EESA_, symObjAddr: 0x4B7C, symBinAddr: 0x10001C1A0, symSize: 0x40 }
  - { offsetInCU: 0x27DF, offset: 0x3A537, size: 0x8, addend: 0x0, symName: __ZNSt3__119__allocate_at_leastB7v160006INS_9allocatorINS_6vectorI7AddressNS1_IS3_EEEEEEEENS_19__allocation_resultINS_16allocator_traitsIT_E7pointerEEERS9_m, symObjAddr: 0x4E54, symBinAddr: 0x10001C478, symSize: 0x40 }
  - { offsetInCU: 0x2822, offset: 0x3A57A, size: 0x8, addend: 0x0, symName: __ZNSt3__115__debug_db_swapB7v160006INS_6vectorINS1_I7AddressNS_9allocatorIS2_EEEENS3_IS5_EEEEEEvPT_S9_, symObjAddr: 0x5390, symBinAddr: 0x10001C9B4, symSize: 0x14 }
  - { offsetInCU: 0x2861, offset: 0x3A5B9, size: 0x8, addend: 0x0, symName: __ZNSt3__125__debug_db_invalidate_allB7v160006INS_6vectorINS1_I7AddressNS_9allocatorIS2_EEEENS3_IS5_EEEEEEvPT_, symObjAddr: 0x54C8, symBinAddr: 0x10001CAEC, symSize: 0x10 }
  - { offsetInCU: 0x2892, offset: 0x3A5EA, size: 0x8, addend: 0x0, symName: __ZNSt3__130__uninitialized_allocator_copyB7v160006INS_9allocatorI7AddressEES2_S2_LPv0EEEPT0_RT_PKS5_SA_S6_, symObjAddr: 0x57FC, symBinAddr: 0x10001CD38, symSize: 0x38 }
  - { offsetInCU: 0x290A, offset: 0x3A662, size: 0x8, addend: 0x0, symName: __ZNSt3__14copyB7v160006IPK7AddressPS1_EET0_T_S6_S5_, symObjAddr: 0x5834, symBinAddr: 0x10001CD70, symSize: 0x40 }
  - { offsetInCU: 0x2964, offset: 0x3A6BC, size: 0x8, addend: 0x0, symName: __ZNSt3__16__copyB7v160006INS_17_ClassicAlgPolicyEPK7AddressS4_PS2_EENS_4pairIT0_T2_EES7_T1_S8_, symObjAddr: 0x5874, symBinAddr: 0x10001CDB0, symSize: 0x44 }
  - { offsetInCU: 0x29D0, offset: 0x3A728, size: 0x8, addend: 0x0, symName: __ZNSt3__123__dispatch_copy_or_moveB7v160006INS_17_ClassicAlgPolicyENS_11__copy_loopIS1_EENS_14__copy_trivialEPK7AddressS7_PS5_EENS_4pairIT2_T4_EESA_T3_SB_, symObjAddr: 0x58B8, symBinAddr: 0x10001CDF4, symSize: 0x44 }
  - { offsetInCU: 0x2A4E, offset: 0x3A7A6, size: 0x8, addend: 0x0, symName: __ZNSt3__121__unwrap_and_dispatchB7v160006INS_10__overloadINS_11__copy_loopINS_17_ClassicAlgPolicyEEENS_14__copy_trivialEEEPK7AddressS9_PS7_Li0EEENS_4pairIT0_T2_EESC_T1_SD_, symObjAddr: 0x58FC, symBinAddr: 0x10001CE38, symSize: 0xB4 }
  - { offsetInCU: 0x2ADC, offset: 0x3A834, size: 0x8, addend: 0x0, symName: __ZNSt3__114__unwrap_rangeB7v160006IPK7AddressS3_EENS_4pairIT0_S5_EET_S7_, symObjAddr: 0x59B0, symBinAddr: 0x10001CEEC, symSize: 0x60 }
  - { offsetInCU: 0x2C2B, offset: 0x3A983, size: 0x8, addend: 0x0, symName: __ZNSt3__19make_pairB7v160006IPK7AddressPS1_EENS_4pairINS_18__unwrap_ref_decayIT_E4typeENS6_IT0_E4typeEEEOS7_OSA_, symObjAddr: 0x5A58, symBinAddr: 0x10001CF94, symSize: 0x38 }
  - { offsetInCU: 0x2C7A, offset: 0x3A9D2, size: 0x8, addend: 0x0, symName: __ZNSt3__114__rewrap_rangeB7v160006IPK7AddressS3_EET_S4_T0_, symObjAddr: 0x5A90, symBinAddr: 0x10001CFCC, symSize: 0x2C }
  - { offsetInCU: 0x2CC6, offset: 0x3AA1E, size: 0x8, addend: 0x0, symName: __ZNSt3__19make_pairB7v160006IPK7AddressS3_EENS_4pairINS_18__unwrap_ref_decayIT_E4typeENS5_IT0_E4typeEEEOS6_OS9_, symObjAddr: 0x5ABC, symBinAddr: 0x10001CFF8, symSize: 0x38 }
  - { offsetInCU: 0x2D15, offset: 0x3AA6D, size: 0x8, addend: 0x0, symName: __ZNSt3__113__unwrap_iterB7v160006IPK7AddressNS_18__unwrap_iter_implIS3_Lb1EEELi0EEEDTclsrT0_8__unwrapclsr3stdE7declvalIT_EEEES7_, symObjAddr: 0x5AF4, symBinAddr: 0x10001D030, symSize: 0x24 }
  - { offsetInCU: 0x2E80, offset: 0x3ABD8, size: 0x8, addend: 0x0, symName: __ZNSt3__112__to_addressB7v160006IK7AddressEEPT_S4_, symObjAddr: 0x5BAC, symBinAddr: 0x10001D0E8, symSize: 0x14 }
  - { offsetInCU: 0x2EB5, offset: 0x3AC0D, size: 0x8, addend: 0x0, symName: __ZNSt3__119__copy_trivial_implB7v160006IK7AddressS1_EENS_4pairIPT_PT0_EES5_S5_S7_, symObjAddr: 0x5BC0, symBinAddr: 0x10001D0FC, symSize: 0x84 }
  - { offsetInCU: 0x2F1D, offset: 0x3AC75, size: 0x8, addend: 0x0, symName: __ZNSt3__19make_pairB7v160006IRPK7AddressPS1_EENS_4pairINS_18__unwrap_ref_decayIT_E4typeENS7_IT0_E4typeEEEOS8_OSB_, symObjAddr: 0x5C44, symBinAddr: 0x10001D180, symSize: 0x38 }
  - { offsetInCU: 0x2F6C, offset: 0x3ACC4, size: 0x8, addend: 0x0, symName: __ZNSt3__113__rewrap_iterB7v160006IPK7AddressS3_NS_18__unwrap_iter_implIS3_Lb1EEEEET_S6_T0_, symObjAddr: 0x5D5C, symBinAddr: 0x10001D298, symSize: 0x3C }
  - { offsetInCU: 0x2FC1, offset: 0x3AD19, size: 0x8, addend: 0x0, symName: __ZNSt3__115__debug_db_swapB7v160006INS_6vectorI7AddressNS_9allocatorIS2_EEEEEEvPT_S7_, symObjAddr: 0x5F04, symBinAddr: 0x10001D3FC, symSize: 0x14 }
  - { offsetInCU: 0x52B7, offset: 0x3D00F, size: 0x8, addend: 0x0, symName: __ZN4NodeC2Eib, symObjAddr: 0x0, symBinAddr: 0x10001995C, symSize: 0x240 }
  - { offsetInCU: 0x531F, offset: 0x3D077, size: 0x8, addend: 0x0, symName: __ZNSt3__16vectorINS0_I7AddressNS_9allocatorIS1_EEEENS2_IS4_EEEC1B7v160006Ev, symObjAddr: 0x240, symBinAddr: 0x100019B9C, symSize: 0x2C }
  - { offsetInCU: 0x5349, offset: 0x3D0A1, size: 0x8, addend: 0x0, symName: __ZNSt3__16vectorINS0_I7AddressNS_9allocatorIS1_EEEENS2_IS4_EEEC1Em, symObjAddr: 0x26C, symBinAddr: 0x100019BC8, symSize: 0x34 }
  - { offsetInCU: 0x5383, offset: 0x3D0DB, size: 0x8, addend: 0x0, symName: __ZNSt3__16vectorINS0_I7AddressNS_9allocatorIS1_EEEENS2_IS4_EEEaSB7v160006EOS6_, symObjAddr: 0x2A0, symBinAddr: 0x100019BFC, symSize: 0x34 }
  - { offsetInCU: 0x53BB, offset: 0x3D113, size: 0x8, addend: 0x0, symName: __ZNSt3__16vectorINS0_I7AddressNS_9allocatorIS1_EEEENS2_IS4_EEED1B7v160006Ev, symObjAddr: 0x2D4, symBinAddr: 0x100019C30, symSize: 0x2C }
  - { offsetInCU: 0x53E5, offset: 0x3D13D, size: 0x8, addend: 0x0, symName: __ZNSt3__16vectorI7AddressNS_9allocatorIS1_EEEC1B7v160006ESt16initializer_listIS1_E, symObjAddr: 0x33C, symBinAddr: 0x100019C5C, symSize: 0x3C }
  - { offsetInCU: 0x541F, offset: 0x3D177, size: 0x8, addend: 0x0, symName: __ZNSt3__16vectorI7AddressNS_9allocatorIS1_EEEaSB7v160006EOS4_, symObjAddr: 0x3A4, symBinAddr: 0x100019C98, symSize: 0x34 }
  - { offsetInCU: 0x5457, offset: 0x3D1AF, size: 0x8, addend: 0x0, symName: __ZN4NodeC1Eib, symObjAddr: 0x404, symBinAddr: 0x100019CCC, symSize: 0x48 }
  - { offsetInCU: 0x55DD, offset: 0x3D335, size: 0x8, addend: 0x0, symName: __ZN9BPlusTreeC2Ev, symObjAddr: 0x44C, symBinAddr: 0x100019D14, symSize: 0xE8 }
  - { offsetInCU: 0x5633, offset: 0x3D38B, size: 0x8, addend: 0x0, symName: __ZN9BPlusTreeC1Ev, symObjAddr: 0x600, symBinAddr: 0x100019DFC, symSize: 0x2C }
  - { offsetInCU: 0x565F, offset: 0x3D3B7, size: 0x8, addend: 0x0, symName: __ZN9BPlusTreeD2Ev, symObjAddr: 0x62C, symBinAddr: 0x100019E28, symSize: 0x14 }
  - { offsetInCU: 0x568B, offset: 0x3D3E3, size: 0x8, addend: 0x0, symName: __ZN9BPlusTreeD1Ev, symObjAddr: 0x640, symBinAddr: 0x100019E3C, symSize: 0x2C }
  - { offsetInCU: 0x56B7, offset: 0x3D40F, size: 0x8, addend: 0x0, symName: __ZN4NodeD2Ev, symObjAddr: 0x66C, symBinAddr: 0x100019E68, symSize: 0x30 }
  - { offsetInCU: 0x56E3, offset: 0x3D43B, size: 0x8, addend: 0x0, symName: __ZN4NodeD1Ev, symObjAddr: 0x69C, symBinAddr: 0x100019E98, symSize: 0x2C }
  - { offsetInCU: 0x570F, offset: 0x3D467, size: 0x8, addend: 0x0, symName: __ZN9BPlusTree11displayTreeEP4Nodei, symObjAddr: 0x6C8, symBinAddr: 0x100019EC4, symSize: 0x150 }
  - { offsetInCU: 0x57A7, offset: 0x3D4FF, size: 0x8, addend: 0x0, symName: __ZN9BPlusTree11displayNodeEP4Node, symObjAddr: 0x818, symBinAddr: 0x10001A014, symSize: 0x1E4 }
  - { offsetInCU: 0x5823, offset: 0x3D57B, size: 0x8, addend: 0x0, symName: __ZN4Node9getIsLeafEv, symObjAddr: 0x9FC, symBinAddr: 0x10001A1F8, symSize: 0x1C }
  - { offsetInCU: 0x5849, offset: 0x3D5A1, size: 0x8, addend: 0x0, symName: __ZN9BPlusTree6insertEfNSt3__16vectorI7AddressNS0_9allocatorIS2_EEEE, symObjAddr: 0xAE8, symBinAddr: 0x10001A214, symSize: 0xB6C }
  - { offsetInCU: 0x5985, offset: 0x3D6DD, size: 0x8, addend: 0x0, symName: __ZNKSt3__16vectorI7AddressNS_9allocatorIS1_EEEixB7v160006Em, symObjAddr: 0x1654, symBinAddr: 0x10001AD80, symSize: 0x24 }
  - { offsetInCU: 0x59BC, offset: 0x3D714, size: 0x8, addend: 0x0, symName: __ZN4Node6setKeyEif, symObjAddr: 0x1678, symBinAddr: 0x10001ADA4, symSize: 0x2C }
  - { offsetInCU: 0x59FE, offset: 0x3D756, size: 0x8, addend: 0x0, symName: __ZN4Node11setChildrenEiNSt3__16vectorI7AddressNS0_9allocatorIS2_EEEE, symObjAddr: 0x16A4, symBinAddr: 0x10001ADD0, symSize: 0x40 }
  - { offsetInCU: 0x5A41, offset: 0x3D799, size: 0x8, addend: 0x0, symName: __ZN4Node11getChildrenEi, symObjAddr: 0x1718, symBinAddr: 0x10001AE10, symSize: 0x44 }
  - { offsetInCU: 0x5A75, offset: 0x3D7CD, size: 0x8, addend: 0x0, symName: __ZN4Node10setNumKeysEi, symObjAddr: 0x1780, symBinAddr: 0x10001AE54, symSize: 0x20 }
  - { offsetInCU: 0x5AA9, offset: 0x3D801, size: 0x8, addend: 0x0, symName: __ZN4Node9setIsLeafEb, symObjAddr: 0x17A0, symBinAddr: 0x10001AE74, symSize: 0x2C }
  - { offsetInCU: 0x5ADD, offset: 0x3D835, size: 0x8, addend: 0x0, symName: __ZN4Node8setChildEi7Address, symObjAddr: 0x17CC, symBinAddr: 0x10001AEA0, symSize: 0x50 }
  - { offsetInCU: 0x5B1F, offset: 0x3D877, size: 0x8, addend: 0x0, symName: __ZN9BPlusTree14insertInternalEfP4NodeS1_, symObjAddr: 0x181C, symBinAddr: 0x10001AEF0, symSize: 0x940 }
  - { offsetInCU: 0x5D17, offset: 0x3DA6F, size: 0x8, addend: 0x0, symName: __ZN4Node10getMaxKeysEv, symObjAddr: 0x21F4, symBinAddr: 0x10001B830, symSize: 0x18 }
  - { offsetInCU: 0x5D3D, offset: 0x3DA95, size: 0x8, addend: 0x0, symName: __ZN9BPlusTree10findParentEP4NodeS1_f, symObjAddr: 0x220C, symBinAddr: 0x10001B848, symSize: 0x1F4 }
  - { offsetInCU: 0x5E1A, offset: 0x3DB72, size: 0x8, addend: 0x0, symName: __ZNSt3__16vectorINS0_I7AddressNS_9allocatorIS1_EEEENS2_IS4_EEEC2B7v160006Ev, symObjAddr: 0x4418, symBinAddr: 0x10001BA3C, symSize: 0x58 }
  - { offsetInCU: 0x5E4A, offset: 0x3DBA2, size: 0x8, addend: 0x0, symName: __ZNSt3__117__compressed_pairIPNS_6vectorI7AddressNS_9allocatorIS2_EEEENS3_IS5_EEEC1B7v160006IDnNS_18__default_init_tagEEEOT_OT0_, symObjAddr: 0x4470, symBinAddr: 0x10001BA94, symSize: 0x3C }
  - { offsetInCU: 0x5EA2, offset: 0x3DBFA, size: 0x8, addend: 0x0, symName: __ZNSt3__117__compressed_pairIPNS_6vectorI7AddressNS_9allocatorIS2_EEEENS3_IS5_EEEC2B7v160006IDnNS_18__default_init_tagEEEOT_OT0_, symObjAddr: 0x44BC, symBinAddr: 0x10001BAE0, symSize: 0x40 }
  - { offsetInCU: 0x5EFA, offset: 0x3DC52, size: 0x8, addend: 0x0, symName: __ZNSt3__122__compressed_pair_elemIPNS_6vectorI7AddressNS_9allocatorIS2_EEEELi0ELb0EEC2B7v160006IDnvEEOT_, symObjAddr: 0x44FC, symBinAddr: 0x10001BB20, symSize: 0x1C }
  - { offsetInCU: 0x5F3C, offset: 0x3DC94, size: 0x8, addend: 0x0, symName: __ZNSt3__122__compressed_pair_elemINS_9allocatorINS_6vectorI7AddressNS1_IS3_EEEEEELi1ELb1EEC2B7v160006ENS_18__default_init_tagE, symObjAddr: 0x4518, symBinAddr: 0x10001BB3C, symSize: 0x2C }
  - { offsetInCU: 0x5F70, offset: 0x3DCC8, size: 0x8, addend: 0x0, symName: __ZNSt3__19allocatorINS_6vectorI7AddressNS0_IS2_EEEEEC2B7v160006Ev, symObjAddr: 0x4544, symBinAddr: 0x10001BB68, symSize: 0x2C }
  - { offsetInCU: 0x5F9A, offset: 0x3DCF2, size: 0x8, addend: 0x0, symName: __ZNSt3__116__non_trivial_ifILb1ENS_9allocatorINS_6vectorI7AddressNS1_IS3_EEEEEEEC2B7v160006Ev, symObjAddr: 0x4570, symBinAddr: 0x10001BB94, symSize: 0x14 }
  - { offsetInCU: 0x5FC4, offset: 0x3DD1C, size: 0x8, addend: 0x0, symName: __ZNSt3__16vectorINS0_I7AddressNS_9allocatorIS1_EEEENS2_IS4_EEED2B7v160006Ev, symObjAddr: 0x4584, symBinAddr: 0x10001BBA8, symSize: 0x44 }
  - { offsetInCU: 0x5FEE, offset: 0x3DD46, size: 0x8, addend: 0x0, symName: __ZNSt3__16vectorINS0_I7AddressNS_9allocatorIS1_EEEENS2_IS4_EEE16__destroy_vectorC1ERS6_, symObjAddr: 0x45C8, symBinAddr: 0x10001BBEC, symSize: 0x34 }
  - { offsetInCU: 0x6027, offset: 0x3DD7F, size: 0x8, addend: 0x0, symName: __ZNSt3__16vectorINS0_I7AddressNS_9allocatorIS1_EEEENS2_IS4_EEE16__destroy_vectorclB7v160006Ev, symObjAddr: 0x45FC, symBinAddr: 0x10001BC20, symSize: 0x9C }
  - { offsetInCU: 0x604D, offset: 0x3DDA5, size: 0x8, addend: 0x0, symName: __ZNSt3__16vectorINS0_I7AddressNS_9allocatorIS1_EEEENS2_IS4_EEE16__destroy_vectorC2ERS6_, symObjAddr: 0x4698, symBinAddr: 0x10001BCBC, symSize: 0x20 }
  - { offsetInCU: 0x6086, offset: 0x3DDDE, size: 0x8, addend: 0x0, symName: __ZNKSt3__16vectorINS0_I7AddressNS_9allocatorIS1_EEEENS2_IS4_EEE17__annotate_deleteB7v160006Ev, symObjAddr: 0x46B8, symBinAddr: 0x10001BCDC, symSize: 0xD4 }
  - { offsetInCU: 0x60AC, offset: 0x3DE04, size: 0x8, addend: 0x0, symName: __ZNSt3__16vectorINS0_I7AddressNS_9allocatorIS1_EEEENS2_IS4_EEE7__clearB7v160006Ev, symObjAddr: 0x479C, symBinAddr: 0x10001BDC0, symSize: 0x28 }
  - { offsetInCU: 0x60D2, offset: 0x3DE2A, size: 0x8, addend: 0x0, symName: __ZNSt3__116allocator_traitsINS_9allocatorINS_6vectorI7AddressNS1_IS3_EEEEEEE10deallocateB7v160006ERS6_PS5_m, symObjAddr: 0x47C4, symBinAddr: 0x10001BDE8, symSize: 0x34 }
  - { offsetInCU: 0x6114, offset: 0x3DE6C, size: 0x8, addend: 0x0, symName: __ZNSt3__16vectorINS0_I7AddressNS_9allocatorIS1_EEEENS2_IS4_EEE7__allocB7v160006Ev, symObjAddr: 0x47F8, symBinAddr: 0x10001BE1C, symSize: 0x28 }
  - { offsetInCU: 0x613A, offset: 0x3DE92, size: 0x8, addend: 0x0, symName: __ZNKSt3__16vectorINS0_I7AddressNS_9allocatorIS1_EEEENS2_IS4_EEE8capacityB7v160006Ev, symObjAddr: 0x4820, symBinAddr: 0x10001BE44, symSize: 0x40 }
  - { offsetInCU: 0x6160, offset: 0x3DEB8, size: 0x8, addend: 0x0, symName: __ZNKSt3__16vectorINS0_I7AddressNS_9allocatorIS1_EEEENS2_IS4_EEE31__annotate_contiguous_containerB7v160006EPKvS8_S8_S8_, symObjAddr: 0x4860, symBinAddr: 0x10001BE84, symSize: 0x20 }
  - { offsetInCU: 0x61B2, offset: 0x3DF0A, size: 0x8, addend: 0x0, symName: __ZNKSt3__16vectorINS0_I7AddressNS_9allocatorIS1_EEEENS2_IS4_EEE4dataB7v160006Ev, symObjAddr: 0x4880, symBinAddr: 0x10001BEA4, symSize: 0x28 }
  - { offsetInCU: 0x61D8, offset: 0x3DF30, size: 0x8, addend: 0x0, symName: __ZNKSt3__16vectorINS0_I7AddressNS_9allocatorIS1_EEEENS2_IS4_EEE4sizeB7v160006Ev, symObjAddr: 0x48A8, symBinAddr: 0x10001BECC, symSize: 0x28 }
  - { offsetInCU: 0x61FE, offset: 0x3DF56, size: 0x8, addend: 0x0, symName: __ZNSt3__16vectorINS0_I7AddressNS_9allocatorIS1_EEEENS2_IS4_EEE22__base_destruct_at_endB7v160006EPS4_, symObjAddr: 0x48E4, symBinAddr: 0x10001BF08, symSize: 0x8C }
  - { offsetInCU: 0x6242, offset: 0x3DF9A, size: 0x8, addend: 0x0, symName: __ZNSt3__116allocator_traitsINS_9allocatorINS_6vectorI7AddressNS1_IS3_EEEEEEE7destroyB7v160006IS5_vEEvRS6_PT_, symObjAddr: 0x4970, symBinAddr: 0x10001BF94, symSize: 0x2C }
  - { offsetInCU: 0x627F, offset: 0x3DFD7, size: 0x8, addend: 0x0, symName: __ZNSt3__19allocatorINS_6vectorI7AddressNS0_IS2_EEEEE7destroyB7v160006EPS4_, symObjAddr: 0x499C, symBinAddr: 0x10001BFC0, symSize: 0x28 }
  - { offsetInCU: 0x62B3, offset: 0x3E00B, size: 0x8, addend: 0x0, symName: __ZNSt3__19allocatorINS_6vectorI7AddressNS0_IS2_EEEEE10deallocateB7v160006EPS4_m, symObjAddr: 0x49C4, symBinAddr: 0x10001BFE8, symSize: 0x44 }
  - { offsetInCU: 0x62F5, offset: 0x3E04D, size: 0x8, addend: 0x0, symName: __ZNSt3__117__compressed_pairIPNS_6vectorI7AddressNS_9allocatorIS2_EEEENS3_IS5_EEE6secondB7v160006Ev, symObjAddr: 0x4A08, symBinAddr: 0x10001C02C, symSize: 0x24 }
  - { offsetInCU: 0x631B, offset: 0x3E073, size: 0x8, addend: 0x0, symName: __ZNSt3__122__compressed_pair_elemINS_9allocatorINS_6vectorI7AddressNS1_IS3_EEEEEELi1ELb1EE5__getB7v160006Ev, symObjAddr: 0x4A2C, symBinAddr: 0x10001C050, symSize: 0x14 }
  - { offsetInCU: 0x6341, offset: 0x3E099, size: 0x8, addend: 0x0, symName: __ZNKSt3__16vectorINS0_I7AddressNS_9allocatorIS1_EEEENS2_IS4_EEE9__end_capB7v160006Ev, symObjAddr: 0x4A40, symBinAddr: 0x10001C064, symSize: 0x28 }
  - { offsetInCU: 0x6367, offset: 0x3E0BF, size: 0x8, addend: 0x0, symName: __ZNKSt3__117__compressed_pairIPNS_6vectorI7AddressNS_9allocatorIS2_EEEENS3_IS5_EEE5firstB7v160006Ev, symObjAddr: 0x4A68, symBinAddr: 0x10001C08C, symSize: 0x24 }
  - { offsetInCU: 0x638D, offset: 0x3E0E5, size: 0x8, addend: 0x0, symName: __ZNKSt3__122__compressed_pair_elemIPNS_6vectorI7AddressNS_9allocatorIS2_EEEELi0ELb0EE5__getB7v160006Ev, symObjAddr: 0x4A8C, symBinAddr: 0x10001C0B0, symSize: 0x14 }
  - { offsetInCU: 0x63B3, offset: 0x3E10B, size: 0x8, addend: 0x0, symName: __ZNSt3__16vectorINS0_I7AddressNS_9allocatorIS1_EEEENS2_IS4_EEEC2Em, symObjAddr: 0x4AA0, symBinAddr: 0x10001C0C4, symSize: 0xDC }
  - { offsetInCU: 0x6403, offset: 0x3E15B, size: 0x8, addend: 0x0, symName: __ZNSt3__16vectorINS0_I7AddressNS_9allocatorIS1_EEEENS2_IS4_EEE11__vallocateB7v160006Em, symObjAddr: 0x4BBC, symBinAddr: 0x10001C1E0, symSize: 0xB4 }
  - { offsetInCU: 0x6446, offset: 0x3E19E, size: 0x8, addend: 0x0, symName: __ZNSt3__16vectorINS0_I7AddressNS_9allocatorIS1_EEEENS2_IS4_EEE18__construct_at_endEm, symObjAddr: 0x4C70, symBinAddr: 0x10001C294, symSize: 0xC8 }
  - { offsetInCU: 0x64B9, offset: 0x3E211, size: 0x8, addend: 0x0, symName: __ZNSt3__128__exception_guard_exceptionsINS_6vectorINS1_I7AddressNS_9allocatorIS2_EEEENS3_IS5_EEE16__destroy_vectorEE10__completeB7v160006Ev, symObjAddr: 0x4D38, symBinAddr: 0x10001C35C, symSize: 0x1C }
  - { offsetInCU: 0x64DF, offset: 0x3E237, size: 0x8, addend: 0x0, symName: __ZNSt3__128__exception_guard_exceptionsINS_6vectorINS1_I7AddressNS_9allocatorIS2_EEEENS3_IS5_EEE16__destroy_vectorEED1B7v160006Ev, symObjAddr: 0x4D54, symBinAddr: 0x10001C378, symSize: 0x2C }
  - { offsetInCU: 0x6509, offset: 0x3E261, size: 0x8, addend: 0x0, symName: __ZNSt3__128__exception_guard_exceptionsINS_6vectorINS1_I7AddressNS_9allocatorIS2_EEEENS3_IS5_EEE16__destroy_vectorEEC1B7v160006ES8_, symObjAddr: 0x4D80, symBinAddr: 0x10001C3A4, symSize: 0x34 }
  - { offsetInCU: 0x6541, offset: 0x3E299, size: 0x8, addend: 0x0, symName: __ZNSt3__128__exception_guard_exceptionsINS_6vectorINS1_I7AddressNS_9allocatorIS2_EEEENS3_IS5_EEE16__destroy_vectorEEC2B7v160006ES8_, symObjAddr: 0x4DB4, symBinAddr: 0x10001C3D8, symSize: 0x24 }
  - { offsetInCU: 0x6578, offset: 0x3E2D0, size: 0x8, addend: 0x0, symName: __ZNKSt3__16vectorINS0_I7AddressNS_9allocatorIS1_EEEENS2_IS4_EEE8max_sizeEv, symObjAddr: 0x4DD8, symBinAddr: 0x10001C3FC, symSize: 0x60 }
  - { offsetInCU: 0x65A1, offset: 0x3E2F9, size: 0x8, addend: 0x0, symName: __ZNKSt3__16vectorINS0_I7AddressNS_9allocatorIS1_EEEENS2_IS4_EEE20__throw_length_errorB7v160006Ev, symObjAddr: 0x4E38, symBinAddr: 0x10001C45C, symSize: 0x1C }
  - { offsetInCU: 0x65C7, offset: 0x3E31F, size: 0x8, addend: 0x0, symName: __ZNSt3__16vectorINS0_I7AddressNS_9allocatorIS1_EEEENS2_IS4_EEE9__end_capB7v160006Ev, symObjAddr: 0x4E94, symBinAddr: 0x10001C4B8, symSize: 0x28 }
  - { offsetInCU: 0x65ED, offset: 0x3E345, size: 0x8, addend: 0x0, symName: __ZNKSt3__16vectorINS0_I7AddressNS_9allocatorIS1_EEEENS2_IS4_EEE14__annotate_newB7v160006Em, symObjAddr: 0x4EBC, symBinAddr: 0x10001C4E0, symSize: 0xC8 }
  - { offsetInCU: 0x662C, offset: 0x3E384, size: 0x8, addend: 0x0, symName: __ZNSt3__116allocator_traitsINS_9allocatorINS_6vectorI7AddressNS1_IS3_EEEEEEE8max_sizeB7v160006IS6_vEEmRKS6_, symObjAddr: 0x4F84, symBinAddr: 0x10001C5A8, symSize: 0x24 }
  - { offsetInCU: 0x665A, offset: 0x3E3B2, size: 0x8, addend: 0x0, symName: __ZNKSt3__16vectorINS0_I7AddressNS_9allocatorIS1_EEEENS2_IS4_EEE7__allocB7v160006Ev, symObjAddr: 0x4FA8, symBinAddr: 0x10001C5CC, symSize: 0x28 }
  - { offsetInCU: 0x6680, offset: 0x3E3D8, size: 0x8, addend: 0x0, symName: __ZNKSt3__19allocatorINS_6vectorI7AddressNS0_IS2_EEEEE8max_sizeB7v160006Ev, symObjAddr: 0x4FD0, symBinAddr: 0x10001C5F4, symSize: 0x18 }
  - { offsetInCU: 0x66A6, offset: 0x3E3FE, size: 0x8, addend: 0x0, symName: __ZNKSt3__117__compressed_pairIPNS_6vectorI7AddressNS_9allocatorIS2_EEEENS3_IS5_EEE6secondB7v160006Ev, symObjAddr: 0x4FE8, symBinAddr: 0x10001C60C, symSize: 0x24 }
  - { offsetInCU: 0x66CC, offset: 0x3E424, size: 0x8, addend: 0x0, symName: __ZNKSt3__122__compressed_pair_elemINS_9allocatorINS_6vectorI7AddressNS1_IS3_EEEEEELi1ELb1EE5__getB7v160006Ev, symObjAddr: 0x500C, symBinAddr: 0x10001C630, symSize: 0x14 }
  - { offsetInCU: 0x66F2, offset: 0x3E44A, size: 0x8, addend: 0x0, symName: __ZNSt3__19allocatorINS_6vectorI7AddressNS0_IS2_EEEEE8allocateB7v160006Em, symObjAddr: 0x5020, symBinAddr: 0x10001C644, symSize: 0x5C }
  - { offsetInCU: 0x6726, offset: 0x3E47E, size: 0x8, addend: 0x0, symName: __ZNSt3__117__compressed_pairIPNS_6vectorI7AddressNS_9allocatorIS2_EEEENS3_IS5_EEE5firstB7v160006Ev, symObjAddr: 0x507C, symBinAddr: 0x10001C6A0, symSize: 0x24 }
  - { offsetInCU: 0x674C, offset: 0x3E4A4, size: 0x8, addend: 0x0, symName: __ZNSt3__122__compressed_pair_elemIPNS_6vectorI7AddressNS_9allocatorIS2_EEEELi0ELb0EE5__getB7v160006Ev, symObjAddr: 0x50A0, symBinAddr: 0x10001C6C4, symSize: 0x14 }
  - { offsetInCU: 0x678B, offset: 0x3E4E3, size: 0x8, addend: 0x0, symName: __ZNSt3__16vectorINS0_I7AddressNS_9allocatorIS1_EEEENS2_IS4_EEE21_ConstructTransactionC1B7v160006ERS6_m, symObjAddr: 0x50B4, symBinAddr: 0x10001C6D8, symSize: 0x3C }
  - { offsetInCU: 0x67D3, offset: 0x3E52B, size: 0x8, addend: 0x0, symName: __ZNSt3__116allocator_traitsINS_9allocatorINS_6vectorI7AddressNS1_IS3_EEEEEEE9constructB7v160006IS5_JEvEEvRS6_PT_DpOT0_, symObjAddr: 0x50F0, symBinAddr: 0x10001C714, symSize: 0x2C }
  - { offsetInCU: 0x6815, offset: 0x3E56D, size: 0x8, addend: 0x0, symName: __ZNSt3__16vectorINS0_I7AddressNS_9allocatorIS1_EEEENS2_IS4_EEE21_ConstructTransactionD1B7v160006Ev, symObjAddr: 0x511C, symBinAddr: 0x10001C740, symSize: 0x2C }
  - { offsetInCU: 0x683F, offset: 0x3E597, size: 0x8, addend: 0x0, symName: __ZNSt3__16vectorINS0_I7AddressNS_9allocatorIS1_EEEENS2_IS4_EEE21_ConstructTransactionC2B7v160006ERS6_m, symObjAddr: 0x5148, symBinAddr: 0x10001C76C, symSize: 0x4C }
  - { offsetInCU: 0x6887, offset: 0x3E5DF, size: 0x8, addend: 0x0, symName: __ZNSt3__19allocatorINS_6vectorI7AddressNS0_IS2_EEEEE9constructB7v160006IS4_JEEEvPT_DpOT0_, symObjAddr: 0x5194, symBinAddr: 0x10001C7B8, symSize: 0x28 }
  - { offsetInCU: 0x68C9, offset: 0x3E621, size: 0x8, addend: 0x0, symName: __ZNSt3__16vectorINS0_I7AddressNS_9allocatorIS1_EEEENS2_IS4_EEE21_ConstructTransactionD2B7v160006Ev, symObjAddr: 0x51BC, symBinAddr: 0x10001C7E0, symSize: 0x20 }
  - { offsetInCU: 0x68F3, offset: 0x3E64B, size: 0x8, addend: 0x0, symName: __ZNSt3__128__exception_guard_exceptionsINS_6vectorINS1_I7AddressNS_9allocatorIS2_EEEENS3_IS5_EEE16__destroy_vectorEED2B7v160006Ev, symObjAddr: 0x51DC, symBinAddr: 0x10001C800, symSize: 0x50 }
  - { offsetInCU: 0x691C, offset: 0x3E674, size: 0x8, addend: 0x0, symName: __ZNSt3__16vectorINS0_I7AddressNS_9allocatorIS1_EEEENS2_IS4_EEE13__move_assignERS6_NS_17integral_constantIbLb1EEE, symObjAddr: 0x522C, symBinAddr: 0x10001C850, symSize: 0xAC }
  - { offsetInCU: 0x695E, offset: 0x3E6B6, size: 0x8, addend: 0x0, symName: __ZNSt3__16vectorINS0_I7AddressNS_9allocatorIS1_EEEENS2_IS4_EEE13__vdeallocateEv, symObjAddr: 0x52D8, symBinAddr: 0x10001C8FC, symSize: 0x8C }
  - { offsetInCU: 0x6987, offset: 0x3E6DF, size: 0x8, addend: 0x0, symName: __ZNSt3__16vectorINS0_I7AddressNS_9allocatorIS1_EEEENS2_IS4_EEE19__move_assign_allocB7v160006ERS6_, symObjAddr: 0x5364, symBinAddr: 0x10001C988, symSize: 0x2C }
  - { offsetInCU: 0x69BC, offset: 0x3E714, size: 0x8, addend: 0x0, symName: __ZNSt3__16vectorINS0_I7AddressNS_9allocatorIS1_EEEENS2_IS4_EEE5clearB7v160006Ev, symObjAddr: 0x53A4, symBinAddr: 0x10001C9C8, symSize: 0x54 }
  - { offsetInCU: 0x69F1, offset: 0x3E749, size: 0x8, addend: 0x0, symName: __ZNKSt3__16vectorINS0_I7AddressNS_9allocatorIS1_EEEENS2_IS4_EEE17__annotate_shrinkB7v160006Em, symObjAddr: 0x53F8, symBinAddr: 0x10001CA1C, symSize: 0xD0 }
  - { offsetInCU: 0x6A26, offset: 0x3E77E, size: 0x8, addend: 0x0, symName: __ZNSt3__16vectorINS0_I7AddressNS_9allocatorIS1_EEEENS2_IS4_EEE19__move_assign_allocB7v160006ERS6_NS_17integral_constantIbLb1EEE, symObjAddr: 0x54D8, symBinAddr: 0x10001CAFC, symSize: 0x38 }
  - { offsetInCU: 0x6A66, offset: 0x3E7BE, size: 0x8, addend: 0x0, symName: __ZNSt3__16vectorI7AddressNS_9allocatorIS1_EEEC2B7v160006ESt16initializer_listIS1_E, symObjAddr: 0x5510, symBinAddr: 0x10001CB34, symSize: 0x128 }
  - { offsetInCU: 0x6AB6, offset: 0x3E80E, size: 0x8, addend: 0x0, symName: __ZNKSt16initializer_listI7AddressE4sizeB7v160006Ev, symObjAddr: 0x5674, symBinAddr: 0x10001CC5C, symSize: 0x18 }
  - { offsetInCU: 0x6ADB, offset: 0x3E833, size: 0x8, addend: 0x0, symName: __ZNSt3__16vectorI7AddressNS_9allocatorIS1_EEE18__construct_at_endIPKS1_Li0EEEvT_S8_m, symObjAddr: 0x568C, symBinAddr: 0x10001CC74, symSize: 0x8C }
  - { offsetInCU: 0x6B4F, offset: 0x3E8A7, size: 0x8, addend: 0x0, symName: __ZNKSt16initializer_listI7AddressE5beginB7v160006Ev, symObjAddr: 0x5718, symBinAddr: 0x10001CD00, symSize: 0x18 }
  - { offsetInCU: 0x6B75, offset: 0x3E8CD, size: 0x8, addend: 0x0, symName: __ZNKSt16initializer_listI7AddressE3endB7v160006Ev, symObjAddr: 0x5730, symBinAddr: 0x10001CD18, symSize: 0x20 }
  - { offsetInCU: 0x6BB5, offset: 0x3E90D, size: 0x8, addend: 0x0, symName: __ZNKSt3__114__copy_trivialclB7v160006IK7AddressS2_Li0EEENS_4pairIPT_PT0_EES6_S6_S8_, symObjAddr: 0x5A10, symBinAddr: 0x10001CF4C, symSize: 0x48 }
  - { offsetInCU: 0x6C3D, offset: 0x3E995, size: 0x8, addend: 0x0, symName: __ZNSt3__14pairIPK7AddressS3_EC1B7v160006IS3_S3_LPv0EEEOT_OT0_, symObjAddr: 0x5B18, symBinAddr: 0x10001D054, symSize: 0x3C }
  - { offsetInCU: 0x6C9B, offset: 0x3E9F3, size: 0x8, addend: 0x0, symName: __ZNSt3__14pairIPK7AddressS3_EC2B7v160006IS3_S3_LPv0EEEOT_OT0_, symObjAddr: 0x5B54, symBinAddr: 0x10001D090, symSize: 0x34 }
  - { offsetInCU: 0x6CF9, offset: 0x3EA51, size: 0x8, addend: 0x0, symName: __ZNSt3__118__unwrap_iter_implIPK7AddressLb1EE8__unwrapB7v160006ES3_, symObjAddr: 0x5B88, symBinAddr: 0x10001D0C4, symSize: 0x24 }
  - { offsetInCU: 0x6D21, offset: 0x3EA79, size: 0x8, addend: 0x0, symName: __ZNSt3__14pairIPK7AddressPS1_EC1B7v160006IRS3_S4_LPv0EEEOT_OT0_, symObjAddr: 0x5C7C, symBinAddr: 0x10001D1B8, symSize: 0x3C }
  - { offsetInCU: 0x6D7F, offset: 0x3EAD7, size: 0x8, addend: 0x0, symName: __ZNSt3__14pairIPK7AddressPS1_EC2B7v160006IRS3_S4_LPv0EEEOT_OT0_, symObjAddr: 0x5CB8, symBinAddr: 0x10001D1F4, symSize: 0x34 }
  - { offsetInCU: 0x6DDD, offset: 0x3EB35, size: 0x8, addend: 0x0, symName: __ZNSt3__14pairIPK7AddressPS1_EC1B7v160006IS3_S4_LPv0EEEOT_OT0_, symObjAddr: 0x5CEC, symBinAddr: 0x10001D228, symSize: 0x3C }
  - { offsetInCU: 0x6E3B, offset: 0x3EB93, size: 0x8, addend: 0x0, symName: __ZNSt3__14pairIPK7AddressPS1_EC2B7v160006IS3_S4_LPv0EEEOT_OT0_, symObjAddr: 0x5D28, symBinAddr: 0x10001D264, symSize: 0x34 }
  - { offsetInCU: 0x6E99, offset: 0x3EBF1, size: 0x8, addend: 0x0, symName: __ZNSt3__118__unwrap_iter_implIPK7AddressLb1EE8__rewrapB7v160006ES3_S3_, symObjAddr: 0x5D98, symBinAddr: 0x10001D2D4, symSize: 0x50 }
  - { offsetInCU: 0x6EC9, offset: 0x3EC21, size: 0x8, addend: 0x0, symName: __ZNSt3__16vectorI7AddressNS_9allocatorIS1_EEE13__move_assignERS4_NS_17integral_constantIbLb1EEE, symObjAddr: 0x5E2C, symBinAddr: 0x10001D324, symSize: 0xAC }
  - { offsetInCU: 0x6F0C, offset: 0x3EC64, size: 0x8, addend: 0x0, symName: __ZNSt3__16vectorI7AddressNS_9allocatorIS1_EEE19__move_assign_allocB7v160006ERS4_, symObjAddr: 0x5ED8, symBinAddr: 0x10001D3D0, symSize: 0x2C }
  - { offsetInCU: 0x6F41, offset: 0x3EC99, size: 0x8, addend: 0x0, symName: __ZNSt3__16vectorI7AddressNS_9allocatorIS1_EEE19__move_assign_allocB7v160006ERS4_NS_17integral_constantIbLb1EEE, symObjAddr: 0x5F18, symBinAddr: 0x10001D410, symSize: 0x38 }
...
